

Microchip MPLAB XC8 Assembler V2.41 build 20230208172133 
                                                                                               Fri Jun 16 14:27:43 2023

Microchip MPLAB XC8 C Compiler v2.41 (Free license) build 20230208172133 Og1 
     1                           	processor	18F16Q40
     2                           	fnconf	rparam,??,?,0
     3                           	pagewidth 120
     4                           	opt	flic
     5                           	psect	smallconst,global,reloc=2,class=SMALLCONST,delta=1,noexec
     6                           	psect	nvBANK5,global,class=BANK5,space=1,delta=1,lowdata,noexec
     7                           	psect	cinit,global,reloc=2,class=CODE,delta=1
     8                           	psect	bssCOMRAM,global,class=COMRAM,space=1,delta=1,lowdata,noexec
     9                           	psect	bssBANK5,global,class=BANK5,space=1,delta=1,lowdata,noexec
    10                           	psect	cstackCOMRAM,global,class=COMRAM,space=1,delta=1,lowdata,noexec
    11                           	psect	text0,global,reloc=2,class=CODE,delta=1
    12                           	psect	text1,global,reloc=2,class=CODE,delta=1
    13                           	psect	text2,global,reloc=2,class=CODE,delta=1
    14                           	psect	text3,global,reloc=2,class=CODE,delta=1
    15                           	psect	text4,global,reloc=2,class=CODE,delta=1
    16                           	psect	text5,global,reloc=2,class=CODE,delta=1
    17                           	psect	text6,global,reloc=2,class=CODE,delta=1
    18                           	psect	text7,global,reloc=2,class=CODE,delta=1
    19                           	psect	text8,global,reloc=2,class=CODE,delta=1
    20                           	psect	text9,global,reloc=2,class=CODE,delta=1
    21                           	psect	text10,global,reloc=2,class=CODE,delta=1
    22                           	psect	text11,global,reloc=2,class=CODE,delta=1
    23                           	psect	text12,global,reloc=2,class=CODE,delta=1
    24                           	psect	text13,global,reloc=2,class=CODE,delta=1
    25                           	psect	text14,global,reloc=2,class=CODE,delta=1
    26                           	psect	text15,global,reloc=2,class=CODE,delta=1
    27                           	psect	text16,global,reloc=2,class=CODE,delta=1
    28                           	psect	text17,global,reloc=2,class=CODE,delta=1
    29                           	psect	text18,global,reloc=2,class=CODE,delta=1
    30                           	psect	text19,global,reloc=2,class=CODE,delta=1
    31                           	psect	text20,global,reloc=2,class=CODE,delta=1
    32                           	psect	text21,global,reloc=2,class=CODE,delta=1
    33                           	psect	text22,global,reloc=2,class=CODE,delta=1
    34                           	psect	text23,global,reloc=2,class=CODE,delta=1
    35                           	psect	text24,global,reloc=2,class=CODE,delta=1
    36                           	psect	text25,global,reloc=2,class=CODE,delta=1
    37                           	psect	text26,global,reloc=2,class=CODE,delta=1
    38                           	psect	text27,global,reloc=2,class=CODE,delta=1
    39                           	psect	text28,global,reloc=2,class=CODE,delta=1
    40                           	psect	text29,global,reloc=2,class=CODE,delta=1
    41                           	psect	text30,global,reloc=2,class=CODE,delta=1
    42                           	psect	text31,global,reloc=2,class=CODE,delta=1
    43                           	psect	text32,global,reloc=2,class=CODE,delta=1
    44                           	psect	text33,global,reloc=2,class=CODE,delta=1
    45                           	psect	text34,global,reloc=2,class=CODE,delta=1
    46                           	psect	text35,global,reloc=2,class=CODE,delta=1
    47                           	psect	text36,global,reloc=2,class=CODE,delta=1
    48                           	psect	text37,global,reloc=2,class=CODE,delta=1
    49                           	psect	text38,global,reloc=2,class=CODE,delta=1
    50                           	psect	text39,global,reloc=2,class=CODE,delta=1
    51                           	psect	text40,global,reloc=2,class=CODE,delta=1
    52                           	psect	text41,global,reloc=2,class=CODE,delta=1
    53                           	psect	text42,global,reloc=2,class=CODE,delta=1
    54                           	psect	text43,global,reloc=2,class=CODE,delta=1
    55                           	psect	text44,global,reloc=2,class=CODE,delta=1
    56                           	psect	text45,global,reloc=2,class=CODE,delta=1
    57                           	psect	text46,global,reloc=2,class=CODE,delta=1
    58                           	psect	text47,global,reloc=2,class=CODE,delta=1
    59                           	psect	text48,global,reloc=2,class=CODE,delta=1
    60                           	psect	text49,global,reloc=2,class=CODE,delta=1
    61                           	psect	text50,global,reloc=2,class=CODE,delta=1
    62                           	psect	text51,global,reloc=2,class=CODE,delta=1,group=3
    63                           	psect	text52,global,reloc=2,class=CODE,delta=1,group=1
    64                           	psect	text53,global,reloc=2,class=CODE,delta=1,group=1
    65                           	psect	text54,global,reloc=2,class=CODE,delta=1,group=1
    66                           	psect	text55,global,reloc=2,class=CODE,delta=1,group=1
    67                           	psect	text56,global,reloc=2,class=CODE,delta=1,group=3
    68                           	psect	text57,global,reloc=2,class=CODE,delta=1,group=3
    69                           	psect	text58,global,reloc=2,class=CODE,delta=1
    70                           	psect	text59,global,reloc=2,class=CODE,delta=1
    71                           	psect	text60,global,reloc=2,class=CODE,delta=1
    72                           	psect	text61,global,reloc=2,class=CODE,delta=1,group=3
    73                           	psect	text62,global,reloc=2,class=CODE,delta=1,group=2
    74                           	psect	text63,global,reloc=2,class=CODE,delta=1,group=2
    75                           	psect	text64,global,reloc=2,class=CODE,delta=1
    76                           	psect	text65,global,reloc=2,class=CODE,delta=1
    77                           	psect	text66,global,reloc=2,class=CODE,delta=1
    78                           	psect	text67,global,reloc=2,class=CODE,delta=1
    79                           	psect	text68,global,reloc=2,class=CODE,delta=1
    80                           	psect	text69,global,reloc=2,class=CODE,delta=1
    81                           	psect	text70,global,reloc=2,class=CODE,delta=1
    82                           	psect	text71,global,reloc=2,class=CODE,delta=1
    83                           	psect	ivt0x8,global,reloc=2,class=CODE,delta=1,noexec,keep,optim=
    84                           	psect	intsave_regs,global,class=BIGRAM,space=1,delta=1,noexec
    85                           	psect	text72,global,reloc=2,class=CODE,delta=1
    86                           	psect	rparam,global,class=COMRAM,space=1,delta=1,noexec
    87                           	psect	config,global,abs,ovrld,class=CONFIG,space=4,delta=1,noexec
    88   000000                     
    89                           ; Generated 24/05/2023 GMT
    90                           ; 
    91                           ; Copyright © 2023, Microchip Technology Inc. and its subsidiaries ("Microchip")
    92                           ; All rights reserved.
    93                           ; 
    94                           ; This software is developed by Microchip Technology Inc. and its subsidiaries ("Microch
      +                          ip").
    95                           ; 
    96                           ; Redistribution and use in source and binary forms, with or without modification, are
    97                           ; permitted provided that the following conditions are met:
    98                           ; 
    99                           ;     1. Redistributions of source code must retain the above copyright notice, this lis
      +                          t of
   100                           ;        conditions and the following disclaimer.
   101                           ; 
   102                           ;     2. Redistributions in binary form must reproduce the above copyright notice, this 
      +                          list
   103                           ;        of conditions and the following disclaimer in the documentation and/or other
   104                           ;        materials provided with the distribution. Publication is not required when
   105                           ;        this file is used in an embedded application.
   106                           ; 
   107                           ;     3. Microchip's name may not be used to endorse or promote products derived from th
      +                          is
   108                           ;        software without specific prior written permission.
   109                           ; 
   110                           ; THIS SOFTWARE IS PROVIDED BY MICROCHIP "AS IS" AND ANY EXPRESS OR IMPLIED WARRANTIES,
   111                           ; INCLUDING, BUT NOT LIMITED TO, THE IMPLIED WARRANTIES OF MERCHANTABILITY AND FITNESS F
      +                          OR
   112                           ; PURPOSE ARE DISCLAIMED.  IN NO EVENT SHALL MICROCHIP BE LIABLE FOR ANY DIRECT, INDIREC
      +                          T,
   113                           ; INCIDENTAL, SPECIAL, EXEMPLARY, OR CONSEQUENTIAL DAMAGES (INCLUDING BUT NOT LIMITED TO
   114                           ; PROCUREMENT OF SUBSTITUTE GOODS OR SERVICES; LOSS OF USE, DATA OR PROFITS; OR BUSINESS
   115                           ; INTERRUPTION) HOWSOEVER CAUSED AND ON ANY THEORY OF LIABILITY, WHETHER IN CONTRACT, ST
      +                          RICT
   116                           ; LIABILITY, OR TORT (INCLUDING NEGLIGENCE OR OTHERWISE) ARISING IN ANY WAY OUT OF THE U
      +                          SE OF
   117                           ; THIS SOFTWARE, EVEN IF ADVISED OF THE POSSIBILITY OF SUCH DAMAGE.
   118                           ; 
   119                           ; 
   120                           ; Code-generator required, PIC18F16Q40 Definitions
   121                           ; 
   122                           ; SFR Addresses
   123   000000                     
   124 ;; Function _PWM1_16BIT_Slice1Output1_DefaultInterruptHandler is unused but had its address taken
   125   000000                     
   126 ;; Function _PWM1_16BIT_Slice1Output2_DefaultInterruptHandler is unused but had its address taken
   127   000000                     
   128 ;; Function _PWM1_16BIT_Period_DefaultInterruptHandler is unused but had its address taken
   129   000000                     
   130 ;; Function _INT0_DefaultInterruptHandler is unused but had its address taken
   131   000000                     
   132 ;; Function _INT1_DefaultInterruptHandler is unused but had its address taken
   133   000000                     
   134 ;; Function _INT2_DefaultInterruptHandler is unused but had its address taken
   135   000000                     
   136 ;; Function _Timer1_Tasks is unused but had its address taken
   137   000000                     
   138 ;; Function _TMR2_PeriodCountSet is unused but had its address taken
   139   000000                     
   140 ;; Function _TMR2_Tasks is unused but had its address taken
   141   000000                     
   142 ;; Function _Timer0_Start is unused but had its address taken
   143   000000                     
   144 ;; Function _Timer0_Stop is unused but had its address taken
   145   000000                     
   146 ;; Function _Timer0_Reload is unused but had its address taken
   147   000000                     
   148 ;; Function _UART1_Deinitialize is unused but had its address taken
   149   000000                     
   150 ;; Function _UART1_TransmitEnable is unused but had its address taken
   151   000000                     
   152 ;; Function _UART1_TransmitDisable is unused but had its address taken
   153   000000                     
   154 ;; Function _UART1_AutoBaudSet is unused but had its address taken
   155   000000                     
   156 ;; Function _UART1_AutoBaudQuery is unused but had its address taken
   157   000000                     
   158 ;; Function _UART1_IsRxReady is unused but had its address taken
   159   000000                     
   160 ;; Function _UART1_IsTxDone is unused but had its address taken
   161   000000                     
   162 ;; Function _UART1_ErrorGet is unused but had its address taken
   163   000000                     
   164 ;; Function _UART1_Read is unused but had its address taken
   165   000000                     
   166 ;; Function _UART1_DefaultFramingErrorCallback is unused but had its address taken
   167   000000                     
   168 ;; Function _UART1_DefaultOverrunErrorCallback is unused but had its address taken
   169   000000                     
   170 ;; Function _UART1_DefaultParityErrorCallback is unused but had its address taken
   171   000000                     
   172                           	psect	smallconst
   173   001600                     __psmallconst:
   174                           	callstack 0
   175   001600  00                 	db	0
   176   001601                     _UART1:
   177                           	callstack 0
   178   001601  50                 	db	low _UART1_Initialize
   179   001602  23                 	db	high _UART1_Initialize
   180   001603  00                 	db	0
   181   001604  00                 	db	0
   182   001605  00                 	db	0
   183   001606  00                 	db	0
   184   001607  22                 	db	low _UART1_Write
   185   001608  2B                 	db	high _UART1_Write
   186   001609  00                 	db	0
   187   00160A  00                 	db	0
   188   00160B  7C                 	db	low _UART1_IsTxReady
   189   00160C  29                 	db	high _UART1_IsTxReady
   190   00160D  00                 	db	0
   191   00160E  00                 	db	0
   192   00160F  00                 	db	0
   193   001610  00                 	db	0
   194   001611  00                 	db	0
   195   001612  00                 	db	0
   196   001613  00                 	db	0
   197   001614  00                 	db	0
   198   001615  00                 	db	0
   199   001616  00                 	db	0
   200   001617  00                 	db	0
   201   001618  00                 	db	0
   202   001619  00                 	db	0
   203   00161A  00                 	db	0
   204   00161B  00                 	db	0
   205   00161C  00                 	db	0
   206   00161D  00                 	db	0
   207   00161E  00                 	db	0
   208   00161F  00                 	db	0
   209   001620  00                 	db	0
   210   001621  00                 	db	0
   211   001622  00                 	db	0
   212   001623  00                 	db	0
   213   001624  00                 	db	0
   214   001625  00                 	db	0
   215   001626  00                 	db	0
   216   001627  00                 	db	0
   217   001628  00                 	db	0
   218   001629  64                 	db	low _UART1_FramingErrorCallbackRegister
   219   00162A  2A                 	db	high _UART1_FramingErrorCallbackRegister
   220   00162B  48                 	db	low _UART1_OverrunErrorCallbackRegister
   221   00162C  2A                 	db	high _UART1_OverrunErrorCallbackRegister
   222   00162D  2C                 	db	low _UART1_ParityErrorCallbackRegister
   223   00162E  2A                 	db	high _UART1_ParityErrorCallbackRegister
   224   00162F  00                 	db	0
   225   001630  00                 	db	0
   226   001631                     __end_of_UART1:
   227                           	callstack 0
   228   001631                     _Timer0:
   229                           	callstack 0
   230   001631  A6                 	db	low _Timer0_Initialize
   231   001632  29                 	db	high _Timer0_Initialize
   232   001633  00                 	db	0
   233   001634  00                 	db	0
   234   001635  00                 	db	0
   235   001636  00                 	db	0
   236   001637  00                 	db	0
   237   001638  00                 	db	0
   238   001639  04                 	db	low _Timer0_OverflowCallbackRegister
   239   00163A  2B                 	db	high _Timer0_OverflowCallbackRegister
   240   00163B  00                 	db	0
   241   00163C  00                 	db	0
   242   00163D                     __end_of_Timer0:
   243                           	callstack 0
   244   00163D                     _tmr2:
   245                           	callstack 0
   246   00163D  28                 	db	low _TMR2_Initialize
   247   00163E  29                 	db	high _TMR2_Initialize
   248   00163F  3C                 	db	low _TMR2_Start
   249   001640  2B                 	db	high _TMR2_Start
   250   001641  36                 	db	low _TMR2_Stop
   251   001642  2B                 	db	high _TMR2_Stop
   252   001643  00                 	db	0
   253   001644  00                 	db	0
   254   001645  B4                 	db	low _TMR2_OverflowCallbackRegister
   255   001646  2A                 	db	high _TMR2_OverflowCallbackRegister
   256   001647  00                 	db	0
   257   001648  00                 	db	0
   258   001649                     __end_of_tmr2:
   259                           	callstack 0
   260   001649                     _Timer1:
   261                           	callstack 0
   262   001649  06                 	db	low _Timer1_Initialize
   263   00164A  27                 	db	high _Timer1_Initialize
   264   00164B  48                 	db	low _Timer1_Start
   265   00164C  2B                 	db	high _Timer1_Start
   266   00164D  42                 	db	low _Timer1_Stop
   267   00164E  2B                 	db	high _Timer1_Stop
   268   00164F  52                 	db	low _Timer1_Write
   269   001650  29                 	db	high _Timer1_Write
   270   001651  AA                 	db	low _Timer1_OverflowCallbackRegister
   271   001652  2A                 	db	high _Timer1_OverflowCallbackRegister
   272   001653  00                 	db	0
   273   001654  00                 	db	0
   274   001655                     __end_of_Timer1:
   275                           	callstack 0
   276   000000                     _T0CON0	set	794
   277   000000                     _T0CON1	set	795
   278   000000                     _TMR0L	set	792
   279   000000                     _TMR0H	set	793
   280   000000                     _T2CON	set	798
   281   000000                     _T2TMR	set	796
   282   000000                     _T2PR	set	797
   283   000000                     _T2HLT	set	799
   284   000000                     _T2CLKCON	set	800
   285   000000                     _T1CON	set	788
   286   000000                     _T1CLK	set	791
   287   000000                     _T1GATE	set	790
   288   000000                     _IOCBF	set	1039
   289   000000                     _IOCBN	set	1038
   290   000000                     _IOCBP	set	1037
   291   000000                     _IOCAF	set	1031
   292   000000                     _IOCAN	set	1030
   293   000000                     _IOCAP	set	1029
   294   000000                     _INLVLB	set	1036
   295   000000                     _INLVLA	set	1028
   296   000000                     _SLRCONB	set	1035
   297   000000                     _SLRCONA	set	1027
   298   000000                     _ODCONB	set	1034
   299   000000                     _ODCONA	set	1026
   300   000000                     _WPUB	set	1033
   301   000000                     _WPUA	set	1025
   302   000000                     _ANSELC	set	1040
   303   000000                     _ANSELB	set	1032
   304   000000                     _LATB	set	1215
   305   000000                     _OSCTUNE	set	176
   306   000000                     _OSCFRQ	set	177
   307   000000                     _OSCEN	set	179
   308   000000                     _PWM1CON	set	1129
   309   000000                     _PWM1S1CFG	set	1130
   310   000000                     _PWM1GIE	set	1128
   311   000000                     _PWM1GIR	set	1127
   312   000000                     _PWM1PIPOS	set	1126
   313   000000                     _PWM1CPRE	set	1125
   314   000000                     _PWM1PRH	set	1124
   315   000000                     _PWM1PRL	set	1123
   316   000000                     _PWM1LDS	set	1122
   317   000000                     _PWM1CLK	set	1121
   318   000000                     _NVMLOCK	set	66
   319   000000                     _NVMDATL	set	70
   320   000000                     _NVMDATH	set	71
   321   000000                     _NVMADRL	set	67
   322   000000                     _NVMADRH	set	68
   323   000000                     _NVMADRU	set	69
   324   000000                     _NVMCON1bits	set	65
   325   000000                     _ADERRL	set	989
   326   000000                     _ADERRH	set	990
   327   000000                     _ADPREVL	set	1000
   328   000000                     _ADPREVH	set	1001
   329   000000                     _ADFLTRL	set	993
   330   000000                     _ADFLTRH	set	994
   331   000000                     _ADACCL	set	995
   332   000000                     _ADACCH	set	996
   333   000000                     _ADCNT	set	998
   334   000000                     _PIR2bits	set	1205
   335   000000                     _ADCON0	set	1011
   336   000000                     _ADCON1	set	1012
   337   000000                     _ADPREH	set	1010
   338   000000                     _ADPREL	set	1009
   339   000000                     _ADCAP	set	1008
   340   000000                     _ADACQH	set	1007
   341   000000                     _ADRPT	set	999
   342   000000                     _ADACCU	set	997
   343   000000                     _ADSTPTH	set	992
   344   000000                     _ADSTPTL	set	991
   345   000000                     _ADUTHH	set	988
   346   000000                     _ADUTHL	set	987
   347   000000                     _ADLTHH	set	986
   348   000000                     _LATCbits	set	1216
   349   001655                     STR_1:
   350   001655  41                 	db	65	;'A'
   351   001656  44                 	db	68	;'D'
   352   001657  43                 	db	67	;'C'
   353   001658  20                 	db	32
   354   001659  52                 	db	82	;'R'
   355   00165A  65                 	db	101	;'e'
   356   00165B  73                 	db	115	;'s'
   357   00165C  75                 	db	117	;'u'
   358   00165D  6C                 	db	108	;'l'
   359   00165E  74                 	db	116	;'t'
   360   00165F  3A                 	db	58	;':'
   361   001660  20                 	db	32
   362   001661  25                 	db	37
   363   001662  64                 	db	100	;'d'
   364   001663  0A                 	db	10
   365   001664  0D                 	db	13
   366   001665  00                 	db	0
   367   001666  00                 	db	0	; dummy byte at the end
   368   000000                     
   369                           	psect	nvBANK5
   370   000598                     __pnvBANK5:
   371                           	callstack 0
   372   000598                     _Timer0_OverflowCallback:
   373                           	callstack 0
   374   000598                     	ds	2
   375   00059A                     _TMR2_OverflowCallback:
   376                           	callstack 0
   377   00059A                     	ds	2
   378   00059C                     _Timer1_OverflowCallback:
   379                           	callstack 0
   380   00059C                     	ds	2
   381   00059E                     _PWM1_16BIT_Period_InterruptHandler:
   382                           	callstack 0
   383   00059E                     	ds	2
   384   0005A0                     _PWM1_16BIT_Slice1Output2_InterruptHandler:
   385                           	callstack 0
   386   0005A0                     	ds	2
   387   0005A2                     _PWM1_16BIT_Slice1Output1_InterruptHandler:
   388                           	callstack 0
   389   0005A2                     	ds	2
   390   000000                     _U1FIFObits	set	688
   391   000000                     _U1ERRIRbits	set	690
   392   000000                     _U1UIRbits	set	689
   393   000000                     _U1CON0bits	set	683
   394   000000                     _U1CON1bits	set	684
   395   000000                     _T0CON0bits	set	794
   396   000000                     _PR2	set	797
   397   000000                     _TMR2	set	796
   398   000000                     _T2CONbits	set	798
   399   000000                     _T2RSTbits	set	801
   400   000000                     _T2HLTbits	set	799
   401   000000                     _T1GCONbits	set	789
   402   000000                     _T1CONbits	set	788
   403   000000                     _ADCON1bits	set	1012
   404   000000                     _ADSTATbits	set	1015
   405   000000                     _ADCON2bits	set	1013
   406   000000                     _ADCON3bits	set	1014
   407   000000                     _ADRESL	set	1002
   408   000000                     _ADRESH	set	1003
   409   000000                     _ADCON0bits	set	1011
   410   000000                     _LATC	set	1216
   411   000000                     _PIE3bits	set	1195
   412   000000                     _PWM1GIEbits	set	1128
   413   000000                     _PWM1CONbits	set	1129
   414   000000                     _PWM1GIRbits	set	1127
   415   000000                     _LATAbits	set	1214
   416   000000                     _TMR1IF	set	9652
   417   000000                     _ADRES	set	1002
   418   000000                     _NVMCON0bits	set	64
   419   000000                     _WDTCON0bits	set	120
   420   000000                     _RC5PPS	set	534
   421   000000                     _PIR3bits	set	1206
   422   000000                     _LATA	set	1214
   423   000000                     _TRISA	set	1222
   424   000000                     _INTCON0bits	set	1238
   425   000000                     _PIR6bits	set	1209
   426   000000                     _PIR4bits	set	1207
   427   000000                     _ADACQL	set	1006
   428   000000                     _ADPCH	set	1004
   429   000000                     _TMR0IE	set	9567
   430   000000                     _RC6PPS	set	535
   431   000000                     _U1RXPPS	set	626
   432   000000                     _RB6I2C	set	646
   433   000000                     _RB4I2C	set	647
   434   000000                     _ADLTHL	set	985
   435   000000                     _TABLAT	set	1269
   436   000000                     _TBLPTRL	set	1270
   437   000000                     _TBLPTRH	set	1271
   438   000000                     _TBLPTRU	set	1272
   439   000000                     _PIR0bits	set	1203
   440   000000                     _PIE4bits	set	1196
   441   000000                     _PIR1bits	set	1204
   442   000000                     _ACTCON	set	172
   443   000000                     _OSCCON1	set	173
   444   000000                     _ANSELA	set	1024
   445   000000                     _PWM1ERS	set	1120
   446   000000                     _ADCLK	set	1018
   447   000000                     _ADACT	set	1017
   448   000000                     _ADREF	set	1016
   449   000000                     _ADSTAT	set	1015
   450   000000                     _ADCON3	set	1014
   451   000000                     _ADCON2	set	1013
   452   000000                     _PIE0bits	set	1192
   453   000000                     _PWM1S1P2H	set	1134
   454   000000                     _PWM1S1P2L	set	1133
   455   000000                     _PWM1S1P1H	set	1132
   456   000000                     _PWM1S1P1L	set	1131
   457   000000                     _OSCCON3	set	175
   458   000000                     _PIR10bits	set	1213
   459   000000                     _PORTCbits	set	1232
   460   000000                     _TRISC	set	1224
   461   000000                     _TRISB	set	1223
   462   000000                     _IOCCF	set	1047
   463   000000                     _IOCCN	set	1046
   464   000000                     _IOCCP	set	1045
   465   000000                     _INLVLC	set	1044
   466   000000                     _SLRCONC	set	1043
   467   000000                     _ODCONC	set	1042
   468   000000                     _WPUC	set	1041
   469   000000                     _U1RXB	set	673
   470   000000                     _TMR1L	set	786
   471   000000                     _TMR1H	set	787
   472   000000                     _T1GCON	set	789
   473   000000                     _T2RST	set	801
   474   000000                     _U1ERRIE	set	691
   475   000000                     _U1ERRIR	set	690
   476   000000                     _U1UIR	set	689
   477   000000                     _U1FIFO	set	688
   478   000000                     _U1BRGH	set	687
   479   000000                     _U1BRGL	set	686
   480   000000                     _U1CON2	set	685
   481   000000                     _U1CON1	set	684
   482   000000                     _U1CON0	set	683
   483   000000                     _U1P3H	set	682
   484   000000                     _U1P3L	set	681
   485   000000                     _U1P2H	set	680
   486   000000                     _U1P2L	set	679
   487   000000                     _U1P1H	set	678
   488   000000                     _U1P1L	set	677
   489   000000                     _U1TXCHK	set	676
   490   000000                     _U1TXB	set	675
   491   000000                     _U1RXCHK	set	674
   492                           
   493                           ; #config settings
   494                           
   495                           	psect	cinit
   496   0028D2                     __pcinit:
   497                           	callstack 0
   498   0028D2                     start_initialization:
   499                           	callstack 0
   500   0028D2                     __initialization:
   501                           	callstack 0
   502                           
   503                           ; Clear objects allocated to BANK5 (56 bytes)
   504   0028D2  EE01  F160         	lfsr	0,__pbssBANK5
   505   0028D6  0E38               	movlw	56
   506   0028D8                     clear_0:
   507   0028D8  6AEE               	clrf	postinc0,c
   508   0028DA  06E8               	decf	wreg,f,c
   509   0028DC  E1FD               	bnz	clear_0
   510                           
   511                           ; Clear objects allocated to COMRAM (17 bytes)
   512   0028DE  EE01  F14F         	lfsr	0,__pbssCOMRAM
   513   0028E2  0E11               	movlw	17
   514   0028E4                     clear_1:
   515   0028E4  6AEE               	clrf	postinc0,c
   516   0028E6  06E8               	decf	wreg,f,c
   517   0028E8  E1FD               	bnz	clear_1
   518                           
   519                           ;
   520                           ; Setup IVTBASE
   521                           ;
   522   0028EA  0104               	movlb	4
   523   0028EC  0E08               	movlw	(ivt0x8_base shr 0)& (0+255)
   524   0028EE  6F5D               	movwf	93,b
   525   0028F0  0E00               	movlw	(ivt0x8_base shr (0+8))& (0+255)
   526   0028F2  6F5E               	movwf	94,b
   527   0028F4  0E00               	movlw	(ivt0x8_base shr (0+16))& (0+255)
   528   0028F6  6F5F               	movwf	95,b
   529   0028F8                     end_of_initialization:
   530                           	callstack 0
   531   0028F8                     __end_of__initialization:
   532                           	callstack 0
   533   0028F8  0100               	movlb	0
   534   0028FA  EF20  F00E         	goto	_main	;jump to C main() function
   535                           
   536                           	psect	bssCOMRAM
   537   00054F                     __pbssCOMRAM:
   538                           	callstack 0
   539   00054F                     _flags:
   540                           	callstack 0
   541   00054F                     	ds	1
   542   000550                     _unlockKeyHigh:
   543                           	callstack 0
   544   000550                     	ds	1
   545   000551                     _unlockKeyLow:
   546                           	callstack 0
   547   000551                     	ds	1
   548   000552                     _ledDisplay:
   549                           	callstack 0
   550   000552                     	ds	1
   551   000553                     _adcResult@EEPROM$F644:
   552                           	callstack 0
   553   000553                     	ds	1
   554   000554                     _rotateReg@Interrupt$F496:
   555                           	callstack 0
   556   000554                     	ds	1
   557   000555                     _rotateReg@Timers$F418:
   558                           	callstack 0
   559   000555                     	ds	1
   560   000556                     _rotateReg@Timer1$F381:
   561                           	callstack 0
   562   000556                     	ds	1
   563   000557                     _rotateReg@VSR$F279:
   564                           	callstack 0
   565   000557                     	ds	1
   566   000558                     _delay:
   567                           	callstack 0
   568   000558                     	ds	1
   569   000559                     _adcResult:
   570                           	callstack 0
   571   000559                     	ds	1
   572   00055A                     _rotateReg:
   573                           	callstack 0
   574   00055A                     	ds	1
   575   00055B                     _flagCounter:
   576                           	callstack 0
   577   00055B                     	ds	1
   578   00055C                     _btnState:
   579                           	callstack 0
   580   00055C                     	ds	1
   581   00055D                     _labState:
   582                           	callstack 0
   583   00055D                     	ds	1
   584   00055E                     _switchEvent:
   585                           	callstack 0
   586   00055E                     	ds	1
   587   00055F                     _labNumber:
   588                           	callstack 0
   589   00055F                     	ds	1
   590                           
   591                           	psect	bssBANK5
   592   000560                     __pbssBANK5:
   593                           	callstack 0
   594   000560                     _width:
   595                           	callstack 0
   596   000560                     	ds	2
   597   000562                     _prec:
   598                           	callstack 0
   599   000562                     	ds	2
   600   000564                     _UART1_ParityErrorHandler:
   601                           	callstack 0
   602   000564                     	ds	2
   603   000566                     _UART1_OverrunErrorHandler:
   604                           	callstack 0
   605   000566                     	ds	2
   606   000568                     _UART1_FramingErrorHandler:
   607                           	callstack 0
   608   000568                     	ds	2
   609   00056A                     _uart1RxLastError:
   610                           	callstack 0
   611   00056A                     	ds	2
   612   00056C                     _Timer1_InterruptHandler:
   613                           	callstack 0
   614   00056C                     	ds	2
   615   00056E                     _timer1ReloadVal:
   616                           	callstack 0
   617   00056E                     	ds	2
   618   000570                     _INT2_InterruptHandler:
   619                           	callstack 0
   620   000570                     	ds	2
   621   000572                     _INT1_InterruptHandler:
   622                           	callstack 0
   623   000572                     	ds	2
   624   000574                     _INT0_InterruptHandler:
   625                           	callstack 0
   626   000574                     	ds	2
   627   000576                     _adcResult@PWM$F336:
   628                           	callstack 0
   629   000576                     	ds	2
   630   000578                     _dbuf:
   631                           	callstack 0
   632   000578                     	ds	32
   633                           
   634                           	psect	cstackCOMRAM
   635   000501                     __pcstackCOMRAM:
   636                           	callstack 0
   637   000501                     ??_LAB_ISR:
   638   000501                     
   639                           ; 2 bytes @ 0x0
   640   000501                     	ds	1
   641   000502                     ??_INTERRUPT_InterruptManager:
   642                           
   643                           ; 1 bytes @ 0x1
   644   000502                     	ds	2
   645   000504                     ??_checkButtonS1:
   646   000504                     ??_Rotate:
   647   000504                     ?_ADCC_GetSingleConversion:
   648                           	callstack 0
   649   000504                     ?___awdiv:
   650                           	callstack 0
   651   000504                     ?___awmod:
   652                           	callstack 0
   653   000504                     _UART1_IsTxReady$2941:
   654                           	callstack 0
   655   000504                     UART1_Write@txData:
   656                           	callstack 0
   657   000504                     NVM_UnlockKeySet@unlockKey:
   658                           	callstack 0
   659   000504                     PWM1_16BIT_SetSlice1Output1DutyCycleRegister@registerValue:
   660                           	callstack 0
   661   000504                     PWM1_16BIT_Slice1Output1_SetInterruptHandler@InterruptHandler:
   662                           	callstack 0
   663   000504                     PWM1_16BIT_Slice1Output2_SetInterruptHandler@InterruptHandler:
   664                           	callstack 0
   665   000504                     PWM1_16BIT_Period_SetInterruptHandler@InterruptHandler:
   666                           	callstack 0
   667   000504                     INT0_SetInterruptHandler@InterruptHandler:
   668                           	callstack 0
   669   000504                     INT1_SetInterruptHandler@InterruptHandler:
   670                           	callstack 0
   671   000504                     INT2_SetInterruptHandler@InterruptHandler:
   672                           	callstack 0
   673   000504                     Timer1_Write@timerVal:
   674                           	callstack 0
   675   000504                     Timer1_OverflowCallbackRegister@CallbackHandler:
   676                           	callstack 0
   677   000504                     TMR2_OverflowCallbackRegister@InterruptHandler:
   678                           	callstack 0
   679   000504                     Timer0_OverflowCallbackRegister@CallbackHandler:
   680                           	callstack 0
   681   000504                     UART1_FramingErrorCallbackRegister@callbackHandler:
   682                           	callstack 0
   683   000504                     UART1_OverrunErrorCallbackRegister@callbackHandler:
   684                           	callstack 0
   685   000504                     UART1_ParityErrorCallbackRegister@callbackHandler:
   686                           	callstack 0
   687   000504                     ___awdiv@dividend:
   688                           	callstack 0
   689   000504                     ___awmod@dividend:
   690                           	callstack 0
   691   000504                     EEPROM_Read@address:
   692                           	callstack 0
   693   000504                     EEPROM_Write@address:
   694                           	callstack 0
   695                           
   696                           ; 3 bytes @ 0x3
   697   000504                     	ds	1
   698   000505                     putch@txData:
   699                           	callstack 0
   700                           
   701                           ; 1 bytes @ 0x4
   702   000505                     	ds	1
   703   000506                     ??_ADCC_GetSingleConversion:
   704   000506                     ??_Timer1_Initialize:
   705   000506                     ??_Blink:
   706   000506                     ??_Timer1_Lab:
   707   000506                     ___awdiv@divisor:
   708                           	callstack 0
   709   000506                     ___awmod@divisor:
   710                           	callstack 0
   711   000506                     fputc@c:
   712                           	callstack 0
   713                           
   714                           ; 2 bytes @ 0x5
   715   000506                     	ds	1
   716   000507                     ??_EEPROM_Read:
   717   000507                     EEPROM_Write@data:
   718                           	callstack 0
   719                           
   720                           ; 1 bytes @ 0x6
   721   000507                     	ds	1
   722   000508                     ??_EEPROM_Write:
   723   000508                     ADCC_GetSingleConversion@channel:
   724                           	callstack 0
   725   000508                     ___awdiv@counter:
   726                           	callstack 0
   727   000508                     ___awmod@counter:
   728                           	callstack 0
   729   000508                     fputc@fp:
   730                           	callstack 0
   731                           
   732                           ; 2 bytes @ 0x7
   733   000508                     	ds	1
   734   000509                     ___awdiv@sign:
   735                           	callstack 0
   736   000509                     ___awmod@sign:
   737                           	callstack 0
   738                           
   739                           ; 1 bytes @ 0x8
   740   000509                     	ds	1
   741   00050A                     ??_fputc:
   742   00050A                     ?_abs:
   743                           	callstack 0
   744   00050A                     ___awdiv@quotient:
   745                           	callstack 0
   746   00050A                     abs@a:
   747                           	callstack 0
   748                           
   749                           ; 2 bytes @ 0x9
   750   00050A                     	ds	1
   751   00050B                     EEPROM_Write@globalInterruptBitValue:
   752                           	callstack 0
   753                           
   754                           ; 1 bytes @ 0xA
   755   00050B                     	ds	1
   756   00050C                     ??_abs:
   757                           
   758                           ; 1 bytes @ 0xB
   759   00050C                     	ds	3
   760   00050F                     fputs@s:
   761                           	callstack 0
   762                           
   763                           ; 2 bytes @ 0xE
   764   00050F                     	ds	2
   765   000511                     fputs@fp:
   766                           	callstack 0
   767                           
   768                           ; 2 bytes @ 0x10
   769   000511                     	ds	2
   770   000513                     fputs@c:
   771                           	callstack 0
   772                           
   773                           ; 1 bytes @ 0x12
   774   000513                     	ds	1
   775   000514                     fputs@i:
   776                           	callstack 0
   777                           
   778                           ; 2 bytes @ 0x13
   779   000514                     	ds	2
   780   000516                     pad@fp:
   781                           	callstack 0
   782                           
   783                           ; 2 bytes @ 0x15
   784   000516                     	ds	2
   785   000518                     pad@buf:
   786                           	callstack 0
   787                           
   788                           ; 2 bytes @ 0x17
   789   000518                     	ds	2
   790   00051A                     pad@p:
   791                           	callstack 0
   792                           
   793                           ; 2 bytes @ 0x19
   794   00051A                     	ds	2
   795   00051C                     ??_pad:
   796                           
   797                           ; 1 bytes @ 0x1B
   798   00051C                     	ds	1
   799   00051D                     pad@i:
   800                           	callstack 0
   801                           
   802                           ; 2 bytes @ 0x1C
   803   00051D                     	ds	2
   804   00051F                     pad@w:
   805                           	callstack 0
   806                           
   807                           ; 2 bytes @ 0x1E
   808   00051F                     	ds	2
   809   000521                     dtoa@fp:
   810                           	callstack 0
   811                           
   812                           ; 2 bytes @ 0x20
   813   000521                     	ds	2
   814   000523                     dtoa@d:
   815                           	callstack 0
   816                           
   817                           ; 2 bytes @ 0x22
   818   000523                     	ds	2
   819   000525                     _dtoa$3546:
   820                           	callstack 0
   821                           
   822                           ; 2 bytes @ 0x24
   823   000525                     	ds	2
   824   000527                     dtoa@p:
   825                           	callstack 0
   826                           
   827                           ; 2 bytes @ 0x26
   828   000527                     	ds	2
   829   000529                     dtoa@w:
   830                           	callstack 0
   831                           
   832                           ; 2 bytes @ 0x28
   833   000529                     	ds	2
   834   00052B                     dtoa@i:
   835                           	callstack 0
   836                           
   837                           ; 2 bytes @ 0x2A
   838   00052B                     	ds	2
   839   00052D                     dtoa@s:
   840                           	callstack 0
   841                           
   842                           ; 1 bytes @ 0x2C
   843   00052D                     	ds	1
   844   00052E                     vfpfcnvrt@fp:
   845                           	callstack 0
   846                           
   847                           ; 2 bytes @ 0x2D
   848   00052E                     	ds	2
   849   000530                     vfpfcnvrt@fmt:
   850                           	callstack 0
   851                           
   852                           ; 2 bytes @ 0x2F
   853   000530                     	ds	2
   854   000532                     vfpfcnvrt@ap:
   855                           	callstack 0
   856                           
   857                           ; 2 bytes @ 0x31
   858   000532                     	ds	2
   859   000534                     ??_vfpfcnvrt:
   860                           
   861                           ; 1 bytes @ 0x33
   862   000534                     	ds	2
   863   000536                     vfpfcnvrt@convarg:
   864                           	callstack 0
   865                           
   866                           ; 4 bytes @ 0x35
   867   000536                     	ds	4
   868   00053A                     vfpfcnvrt@cp:
   869                           	callstack 0
   870                           
   871                           ; 2 bytes @ 0x39
   872   00053A                     	ds	2
   873   00053C                     ?_vfprintf:
   874                           	callstack 0
   875   00053C                     vfprintf@fp:
   876                           	callstack 0
   877                           
   878                           ; 2 bytes @ 0x3B
   879   00053C                     	ds	2
   880   00053E                     vfprintf@fmt:
   881                           	callstack 0
   882                           
   883                           ; 2 bytes @ 0x3D
   884   00053E                     	ds	2
   885   000540                     vfprintf@ap:
   886                           	callstack 0
   887                           
   888                           ; 2 bytes @ 0x3F
   889   000540                     	ds	2
   890   000542                     vfprintf@cfmt:
   891                           	callstack 0
   892                           
   893                           ; 2 bytes @ 0x41
   894   000542                     	ds	2
   895   000544                     ?_printf:
   896                           	callstack 0
   897   000544                     printf@fmt:
   898                           	callstack 0
   899                           
   900                           ; 2 bytes @ 0x43
   901   000544                     	ds	4
   902   000548                     printf@ap:
   903                           	callstack 0
   904                           
   905                           ; 2 bytes @ 0x47
   906   000548                     	ds	2
   907   00054A                     ??_ADC:
   908   00054A                     ??_VSR:
   909   00054A                     ??_EEPROM:
   910                           
   911                           ; 1 bytes @ 0x49
   912   00054A                     	ds	3
   913   00054D                     ??_main:
   914                           
   915                           ; 1 bytes @ 0x4C
   916   00054D                     	ds	2
   917                           
   918 ;;
   919 ;;Main: autosize = 0, tempsize = 2, incstack = 0, save=0
   920 ;;
   921 ;; *************** function _main *****************
   922 ;; Defined at:
   923 ;;		line 42 in file "main.c"
   924 ;; Parameters:    Size  Location     Type
   925 ;;		None
   926 ;; Auto vars:     Size  Location     Type
   927 ;;		None
   928 ;; Return value:  Size  Location     Type
   929 ;;                  2  1446[None  ] int 
   930 ;; Registers used:
   931 ;;		wreg, fsr1l, fsr1h, fsr2l, fsr2h, status,2, status,0, tblptrl, tblptrh, tblptru, cstack
   932 ;; Tracked objects:
   933 ;;		On entry : 0/0
   934 ;;		On exit  : 0/0
   935 ;;		Unchanged: 0/0
   936 ;; Data sizes:     COMRAM   BANK5   BANK6   BANK7   BANK8   BANK9  BANK10  BANK11  BANK12  BANK13  BANK14  BANK15  BANK1
      +6  BANK17  BANK18  BANK19  BANK20
   937 ;;      Params:         0       0       0       0       0       0       0       0       0       0       0       0       
      +0       0       0       0       0
   938 ;;      Locals:         0       0       0       0       0       0       0       0       0       0       0       0       
      +0       0       0       0       0
   939 ;;      Temps:          2       0       0       0       0       0       0       0       0       0       0       0       
      +0       0       0       0       0
   940 ;;      Totals:         2       0       0       0       0       0       0       0       0       0       0       0       
      +0       0       0       0       0
   941 ;;Total ram usage:        2 bytes
   942 ;; Hardware stack levels required when called: 13
   943 ;; This function calls:
   944 ;;		_ADC
   945 ;;		_Blink
   946 ;;		_EEPROM
   947 ;;		_HelloWorld
   948 ;;		_Interrupt
   949 ;;		_PWM
   950 ;;		_Rotate
   951 ;;		_SYSTEM_Initialize
   952 ;;		_SleepWakeUp
   953 ;;		_Timer1_Lab
   954 ;;		_VSR
   955 ;;		_checkButtonS1
   956 ;;		_nextLab
   957 ;; This function is called by:
   958 ;;		Startup code after reset
   959 ;; This function uses a non-reentrant model
   960 ;;
   961                           
   962                           	psect	text0
   963   001C40                     __ptext0:
   964                           	callstack 0
   965   001C40                     _main:
   966                           	callstack 114
   967   001C40                     
   968                           ;main.c: 45:     SYSTEM_Initialize();
   969   001C40  EC7F  F014         	call	_SYSTEM_Initialize	;wreg free
   970   001C44  0E00               	movlw	0
   971   001C46  0102               	movlb	2	; () banked
   972   001C48  6F16               	movwf	22,b	;volatile
   973   001C4A                     
   974                           ; BSR set to: 2
   975   001C4A  9EAB               	bcf	1195,7,c	;volatile
   976   001C4C                     l4332:
   977                           
   978                           ;main.c: 54:         checkButtonS1();
   979   001C4C  EC36  F013         	call	_checkButtonS1	;wreg free
   980                           
   981                           ;main.c: 55:         switch (labNumber) {
   982   001C50  EF52  F00E         	goto	l4356
   983   001C54                     l4334:
   984   001C54  ECC8  F013         	call	_HelloWorld	;wreg free
   985                           
   986                           ;main.c: 57:                 break;
   987   001C58  EF87  F00E         	goto	l4358
   988   001C5C                     l4336:
   989   001C5C  EC8B  F010         	call	_Blink	;wreg free
   990                           
   991                           ;main.c: 59:                 break;
   992   001C60  EF87  F00E         	goto	l4358
   993   001C64                     l4338:
   994   001C64  EC95  F00E         	call	_Rotate	;wreg free
   995                           
   996                           ;main.c: 61:                 break;
   997   001C68  EF87  F00E         	goto	l4358
   998   001C6C                     l4340:
   999   001C6C  EC03  F00F         	call	_ADC	;wreg free
  1000                           
  1001                           ;main.c: 63:                 break;
  1002   001C70  EF87  F00E         	goto	l4358
  1003   001C74                     l4342:
  1004   001C74  EC94  F00C         	call	_VSR	;wreg free
  1005                           
  1006                           ;main.c: 65:                 break;
  1007   001C78  EF87  F00E         	goto	l4358
  1008   001C7C                     l4344:
  1009   001C7C  ECD7  F010         	call	_PWM	;wreg free
  1010                           
  1011                           ;main.c: 67:                 break;
  1012   001C80  EF87  F00E         	goto	l4358
  1013   001C84                     l4346:
  1014   001C84  ECAA  F00D         	call	_Timer1_Lab	;wreg free
  1015                           
  1016                           ;main.c: 69:                 break;
  1017   001C88  EF87  F00E         	goto	l4358
  1018   001C8C                     l4348:
  1019   001C8C  EC5D  F013         	call	_Interrupt	;wreg free
  1020                           
  1021                           ;main.c: 71:                 break;
  1022   001C90  EF87  F00E         	goto	l4358
  1023   001C94                     l4350:
  1024   001C94  EC8B  F012         	call	_SleepWakeUp	;wreg free
  1025                           
  1026                           ;main.c: 73:                 break;
  1027   001C98  EF87  F00E         	goto	l4358
  1028   001C9C                     l4352:
  1029   001C9C  EC26  F00D         	call	_EEPROM	;wreg free
  1030                           
  1031                           ;main.c: 75:                 break;
  1032   001CA0  EF87  F00E         	goto	l4358
  1033   001CA4                     l4356:
  1034   001CA4  505F               	movf	_labNumber^(0+1280),w,c
  1035   001CA6  6E4D               	movwf	??_main^(0+1280),c
  1036   001CA8  6A4E               	clrf	(??_main+1)^(0+1280),c
  1037                           
  1038                           ; Switch on 2 bytes has been partitioned into a top level switch of size 1, and 1 sub-sw
      +                          itches
  1039                           ; Switch size 1, requested type "simple"
  1040                           ; Number of cases is 1, Range of values is 0 to 0
  1041                           ; switch strategies available:
  1042                           ; Name         Instructions Cycles
  1043                           ; simple_byte            4     3 (average)
  1044                           ;	Chosen strategy is simple_byte
  1045   001CAA  504E               	movf	(??_main+1)^(0+1280),w,c
  1046   001CAC  0A00               	xorlw	0	; case 0
  1047   001CAE  B4D8               	btfsc	status,2,c
  1048   001CB0  EF5C  F00E         	goto	l4398
  1049   001CB4  EF87  F00E         	goto	l4358
  1050   001CB8                     l4398:
  1051                           
  1052                           ; Switch size 1, requested type "simple"
  1053                           ; Number of cases is 10, Range of values is 1 to 10
  1054                           ; switch strategies available:
  1055                           ; Name         Instructions Cycles
  1056                           ; simple_byte           31    16 (average)
  1057                           ;	Chosen strategy is simple_byte
  1058   001CB8  504D               	movf	??_main^(0+1280),w,c
  1059   001CBA  0A01               	xorlw	1	; case 1
  1060   001CBC  B4D8               	btfsc	status,2,c
  1061   001CBE  EF2A  F00E         	goto	l4334
  1062   001CC2  0A03               	xorlw	3	; case 2
  1063   001CC4  B4D8               	btfsc	status,2,c
  1064   001CC6  EF2E  F00E         	goto	l4336
  1065   001CCA  0A01               	xorlw	1	; case 3
  1066   001CCC  B4D8               	btfsc	status,2,c
  1067   001CCE  EF32  F00E         	goto	l4338
  1068   001CD2  0A07               	xorlw	7	; case 4
  1069   001CD4  B4D8               	btfsc	status,2,c
  1070   001CD6  EF36  F00E         	goto	l4340
  1071   001CDA  0A01               	xorlw	1	; case 5
  1072   001CDC  B4D8               	btfsc	status,2,c
  1073   001CDE  EF3A  F00E         	goto	l4342
  1074   001CE2  0A03               	xorlw	3	; case 6
  1075   001CE4  B4D8               	btfsc	status,2,c
  1076   001CE6  EF3E  F00E         	goto	l4344
  1077   001CEA  0A01               	xorlw	1	; case 7
  1078   001CEC  B4D8               	btfsc	status,2,c
  1079   001CEE  EF42  F00E         	goto	l4346
  1080   001CF2  0A0F               	xorlw	15	; case 8
  1081   001CF4  B4D8               	btfsc	status,2,c
  1082   001CF6  EF46  F00E         	goto	l4348
  1083   001CFA  0A01               	xorlw	1	; case 9
  1084   001CFC  B4D8               	btfsc	status,2,c
  1085   001CFE  EF4A  F00E         	goto	l4350
  1086   001D02  0A03               	xorlw	3	; case 10
  1087   001D04  B4D8               	btfsc	status,2,c
  1088   001D06  EF4E  F00E         	goto	l4352
  1089   001D0A  EF87  F00E         	goto	l4358
  1090   001D0E                     l4358:
  1091                           
  1092                           ;main.c: 78:         if (switchEvent) {
  1093   001D0E  505E               	movf	_switchEvent^(0+1280),w,c
  1094   001D10  B4D8               	btfsc	status,2,c
  1095   001D12  EF8D  F00E         	goto	u2491
  1096   001D16  EF8F  F00E         	goto	u2490
  1097   001D1A                     u2491:
  1098   001D1A  EF26  F00E         	goto	l4332
  1099   001D1E                     u2490:
  1100   001D1E                     
  1101                           ;main.c: 79:             nextLab();
  1102   001D1E  EC08  F015         	call	_nextLab	;wreg free
  1103   001D22  EF26  F00E         	goto	l4332
  1104   001D26  EF0D  F000         	goto	start
  1105   001D2A                     __end_of_main:
  1106                           	callstack 0
  1107                           
  1108 ;; *************** function _nextLab *****************
  1109 ;; Defined at:
  1110 ;;		line 97 in file "main.c"
  1111 ;; Parameters:    Size  Location     Type
  1112 ;;		None
  1113 ;; Auto vars:     Size  Location     Type
  1114 ;;		None
  1115 ;; Return value:  Size  Location     Type
  1116 ;;                  1    wreg      void 
  1117 ;; Registers used:
  1118 ;;		wreg, status,2, status,0
  1119 ;; Tracked objects:
  1120 ;;		On entry : 0/0
  1121 ;;		On exit  : 0/0
  1122 ;;		Unchanged: 0/0
  1123 ;; Data sizes:     COMRAM   BANK5   BANK6   BANK7   BANK8   BANK9  BANK10  BANK11  BANK12  BANK13  BANK14  BANK15  BANK1
      +6  BANK17  BANK18  BANK19  BANK20
  1124 ;;      Params:         0       0       0       0       0       0       0       0       0       0       0       0       
      +0       0       0       0       0
  1125 ;;      Locals:         0       0       0       0       0       0       0       0       0       0       0       0       
      +0       0       0       0       0
  1126 ;;      Temps:          0       0       0       0       0       0       0       0       0       0       0       0       
      +0       0       0       0       0
  1127 ;;      Totals:         0       0       0       0       0       0       0       0       0       0       0       0       
      +0       0       0       0       0
  1128 ;;Total ram usage:        0 bytes
  1129 ;; Hardware stack levels used: 1
  1130 ;; Hardware stack levels required when called: 3
  1131 ;; This function calls:
  1132 ;;		Nothing
  1133 ;; This function is called by:
  1134 ;;		_main
  1135 ;; This function uses a non-reentrant model
  1136 ;;
  1137                           
  1138                           	psect	text1
  1139   002A10                     __ptext1:
  1140                           	callstack 0
  1141   002A10                     _nextLab:
  1142                           	callstack 123
  1143   002A10                     
  1144                           ;main.c: 98:     switchEvent = 0;
  1145   002A10  0E00               	movlw	0
  1146   002A12  6E5E               	movwf	_switchEvent^(0+1280),c
  1147   002A14                     
  1148                           ;main.c: 99:     labNumber++;
  1149   002A14  2A5F               	incf	_labNumber^(0+1280),f,c
  1150   002A16                     
  1151                           ;main.c: 101:     if (labNumber > 10) {
  1152   002A16  0E0A               	movlw	10
  1153   002A18  645F               	cpfsgt	_labNumber^(0+1280),c
  1154   002A1A  EF11  F015         	goto	u901
  1155   002A1E  EF13  F015         	goto	u900
  1156   002A22                     u901:
  1157   002A22  EF15  F015         	goto	l1478
  1158   002A26                     u900:
  1159   002A26                     
  1160                           ;main.c: 102:         labNumber = 1;
  1161   002A26  0E01               	movlw	1
  1162   002A28  6E5F               	movwf	_labNumber^(0+1280),c
  1163   002A2A                     l1478:
  1164   002A2A  0012               	return		;funcret
  1165   002A2C                     __end_of_nextLab:
  1166                           	callstack 0
  1167                           
  1168 ;; *************** function _checkButtonS1 *****************
  1169 ;; Defined at:
  1170 ;;		line 85 in file "main.c"
  1171 ;; Parameters:    Size  Location     Type
  1172 ;;		None
  1173 ;; Auto vars:     Size  Location     Type
  1174 ;;		None
  1175 ;; Return value:  Size  Location     Type
  1176 ;;                  1    wreg      void 
  1177 ;; Registers used:
  1178 ;;		wreg, status,2
  1179 ;; Tracked objects:
  1180 ;;		On entry : 0/0
  1181 ;;		On exit  : 0/0
  1182 ;;		Unchanged: 0/0
  1183 ;; Data sizes:     COMRAM   BANK5   BANK6   BANK7   BANK8   BANK9  BANK10  BANK11  BANK12  BANK13  BANK14  BANK15  BANK1
      +6  BANK17  BANK18  BANK19  BANK20
  1184 ;;      Params:         0       0       0       0       0       0       0       0       0       0       0       0       
      +0       0       0       0       0
  1185 ;;      Locals:         0       0       0       0       0       0       0       0       0       0       0       0       
      +0       0       0       0       0
  1186 ;;      Temps:          1       0       0       0       0       0       0       0       0       0       0       0       
      +0       0       0       0       0
  1187 ;;      Totals:         1       0       0       0       0       0       0       0       0       0       0       0       
      +0       0       0       0       0
  1188 ;;Total ram usage:        1 bytes
  1189 ;; Hardware stack levels used: 1
  1190 ;; Hardware stack levels required when called: 3
  1191 ;; This function calls:
  1192 ;;		Nothing
  1193 ;; This function is called by:
  1194 ;;		_main
  1195 ;; This function uses a non-reentrant model
  1196 ;;
  1197                           
  1198                           	psect	text2
  1199   00266C                     __ptext2:
  1200                           	callstack 0
  1201   00266C                     _checkButtonS1:
  1202                           	callstack 123
  1203   00266C                     
  1204                           ;main.c: 86:     if (btnState == 0) {
  1205   00266C  505C               	movf	_btnState^(0+1280),w,c
  1206   00266E  A4D8               	btfss	status,2,c
  1207   002670  EF3C  F013         	goto	u871
  1208   002674  EF3E  F013         	goto	u870
  1209   002678                     u871:
  1210   002678  EF51  F013         	goto	l1470
  1211   00267C                     u870:
  1212   00267C                     
  1213                           ;main.c: 87:         if (PORTCbits.RC4 == 0) {
  1214   00267C  B8D0               	btfsc	208,4,c	;volatile
  1215   00267E  EF43  F013         	goto	u881
  1216   002682  EF45  F013         	goto	u880
  1217   002686                     u881:
  1218   002686  EF5C  F013         	goto	l1474
  1219   00268A                     u880:
  1220   00268A                     
  1221                           ;main.c: 88:             _delay((unsigned long)((100)*(500000/4000.0)));
  1222   00268A  0E11               	movlw	17
  1223   00268C  6E04               	movwf	??_checkButtonS1^(0+1280),c
  1224   00268E  0E3A               	movlw	58
  1225   002690                     u2507:
  1226   002690  2EE8               	decfsz	wreg,f,c
  1227   002692  D7FE               	bra	u2507
  1228   002694  2E04               	decfsz	??_checkButtonS1^(0+1280),f,c
  1229   002696  D7FC               	bra	u2507
  1230   002698  D000               	nop2	
  1231   00269A                     
  1232                           ;main.c: 89:             btnState = 1;
  1233   00269A  0E01               	movlw	1
  1234   00269C  6E5C               	movwf	_btnState^(0+1280),c
  1235   00269E  EF5C  F013         	goto	l1474
  1236   0026A2                     l1470:
  1237   0026A2  A8D0               	btfss	208,4,c	;volatile
  1238   0026A4  EF56  F013         	goto	u891
  1239   0026A8  EF58  F013         	goto	u890
  1240   0026AC                     u891:
  1241   0026AC  EF5C  F013         	goto	l1474
  1242   0026B0                     u890:
  1243   0026B0                     
  1244                           ;main.c: 92:         btnState = 0;
  1245   0026B0  0E00               	movlw	0
  1246   0026B2  6E5C               	movwf	_btnState^(0+1280),c
  1247                           
  1248                           ;main.c: 93:         switchEvent = 1;
  1249   0026B4  0E01               	movlw	1
  1250   0026B6  6E5E               	movwf	_switchEvent^(0+1280),c
  1251   0026B8                     l1474:
  1252   0026B8  0012               	return		;funcret
  1253   0026BA                     __end_of_checkButtonS1:
  1254                           	callstack 0
  1255                           
  1256 ;; *************** function _VSR *****************
  1257 ;; Defined at:
  1258 ;;		line 56 in file "Labs/Lab05_VariableSpeedRotate/VSR.c"
  1259 ;; Parameters:    Size  Location     Type
  1260 ;;		None
  1261 ;; Auto vars:     Size  Location     Type
  1262 ;;		None
  1263 ;; Return value:  Size  Location     Type
  1264 ;;                  1    wreg      void 
  1265 ;; Registers used:
  1266 ;;		wreg, fsr1l, fsr1h, fsr2l, fsr2h, status,2, status,0, tblptrl, tblptrh, tblptru, cstack
  1267 ;; Tracked objects:
  1268 ;;		On entry : 0/0
  1269 ;;		On exit  : 0/0
  1270 ;;		Unchanged: 0/0
  1271 ;; Data sizes:     COMRAM   BANK5   BANK6   BANK7   BANK8   BANK9  BANK10  BANK11  BANK12  BANK13  BANK14  BANK15  BANK1
      +6  BANK17  BANK18  BANK19  BANK20
  1272 ;;      Params:         0       0       0       0       0       0       0       0       0       0       0       0       
      +0       0       0       0       0
  1273 ;;      Locals:         0       0       0       0       0       0       0       0       0       0       0       0       
      +0       0       0       0       0
  1274 ;;      Temps:          3       0       0       0       0       0       0       0       0       0       0       0       
      +0       0       0       0       0
  1275 ;;      Totals:         3       0       0       0       0       0       0       0       0       0       0       0       
      +0       0       0       0       0
  1276 ;;Total ram usage:        3 bytes
  1277 ;; Hardware stack levels used: 1
  1278 ;; Hardware stack levels required when called: 12
  1279 ;; This function calls:
  1280 ;;		_ADCC_GetSingleConversion
  1281 ;;		_printf
  1282 ;; This function is called by:
  1283 ;;		_main
  1284 ;; This function uses a non-reentrant model
  1285 ;;
  1286                           
  1287                           	psect	text3
  1288   001928                     __ptext3:
  1289                           	callstack 0
  1290   001928                     _VSR:
  1291                           	callstack 114
  1292   001928                     
  1293                           ;Labs/Lab05_VariableSpeedRotate/VSR.c: 57:     if (labState == 0) {
  1294   001928  505D               	movf	_labState^(0+1280),w,c
  1295   00192A  A4D8               	btfss	status,2,c
  1296   00192C  EF9A  F00C         	goto	u1931
  1297   001930  EF9C  F00C         	goto	u1930
  1298   001934                     u1931:
  1299   001934  EFA3  F00C         	goto	l4030
  1300   001938                     u1930:
  1301   001938  0E00               	movlw	0
  1302   00193A  6EBE               	movwf	190,c	;volatile
  1303   00193C  9AC0               	bcf	192,5,c	;volatile
  1304   00193E                     
  1305                           ;Labs/Lab05_VariableSpeedRotate/VSR.c: 61:         rotateReg = 1;
  1306   00193E  0E01               	movlw	1
  1307   001940  6E57               	movwf	_rotateReg@VSR$F279^(0+1280),c
  1308                           
  1309                           ;Labs/Lab05_VariableSpeedRotate/VSR.c: 63:         labState = 1;
  1310   001942  0E01               	movlw	1
  1311   001944  6E5D               	movwf	_labState^(0+1280),c
  1312   001946                     l4030:
  1313                           
  1314                           ;Labs/Lab05_VariableSpeedRotate/VSR.c: 66:     if (labState == 1) {
  1315   001946  045D               	decf	_labState^(0+1280),w,c
  1316   001948  A4D8               	btfss	status,2,c
  1317   00194A  EFA9  F00C         	goto	u1941
  1318   00194E  EFAB  F00C         	goto	u1940
  1319   001952                     u1941:
  1320   001952  EF1B  F00D         	goto	l155
  1321   001956                     u1940:
  1322   001956                     
  1323                           ;Labs/Lab05_VariableSpeedRotate/VSR.c: 68:         delay = ADCC_GetSingleConversion(POT_
      +                          CHANNEL) >> 8;
  1324   001956  0E10               	movlw	16
  1325   001958  EC52  F014         	call	_ADCC_GetSingleConversion
  1326   00195C  C505  F504         	movff	?_ADCC_GetSingleConversion+1,?_ADCC_GetSingleConversion
  1327   001960  6A05               	clrf	(?_ADCC_GetSingleConversion+1)^(0+1280),c
  1328   001962  5004               	movf	?_ADCC_GetSingleConversion^(0+1280),w,c
  1329   001964  6E58               	movwf	_delay^(0+1280),c
  1330   001966                     
  1331                           ;Labs/Lab05_VariableSpeedRotate/VSR.c: 70:         printf("ADC Result: %d\n\r", ADRES >>
      +                           4);
  1332   001966  0E55               	movlw	low STR_1
  1333   001968  6E44               	movwf	printf@fmt^(0+1280),c
  1334   00196A  0E16               	movlw	high STR_1
  1335   00196C  6E45               	movwf	(printf@fmt+1)^(0+1280),c
  1336   00196E  C3EA F54A          	movff	1002,??_VSR	;volatile
  1337   001972  C3EB F54B          	movff	1003,??_VSR+1	;volatile
  1338   001976  0E04               	movlw	4
  1339   001978  6E4C               	movwf	(??_VSR+2)^(0+1280),c
  1340   00197A                     u1955:
  1341   00197A  90D8               	bcf	status,0,c
  1342   00197C  324B               	rrcf	(??_VSR+1)^(0+1280),f,c
  1343   00197E  324A               	rrcf	??_VSR^(0+1280),f,c
  1344   001980  2E4C               	decfsz	(??_VSR+2)^(0+1280),f,c
  1345   001982  EFBD  F00C         	goto	u1955
  1346   001986  C54A  F546         	movff	??_VSR,?_printf+2
  1347   00198A  C54B  F547         	movff	??_VSR+1,?_printf+3
  1348   00198E  ECE6  F014         	call	_printf	;wreg free
  1349   001992                     l4036:
  1350                           
  1351                           ;Labs/Lab05_VariableSpeedRotate/VSR.c: 71:         _delay((unsigned long)((2)*(500000/40
      +                          00.0)));
  1352   001992  0E53               	movlw	83
  1353   001994                     u2517:
  1354   001994  2EE8               	decfsz	wreg,f,c
  1355   001996  D7FE               	bra	u2517
  1356   001998  F000               	nop	
  1357   00199A                     
  1358                           ;Labs/Lab05_VariableSpeedRotate/VSR.c: 74:         while (delay-- != 0) {
  1359   00199A  0658               	decf	_delay^(0+1280),f,c
  1360   00199C  2858               	incf	_delay^(0+1280),w,c
  1361   00199E  A4D8               	btfss	status,2,c
  1362   0019A0  EFD4  F00C         	goto	u1961
  1363   0019A4  EFD6  F00C         	goto	u1960
  1364   0019A8                     u1961:
  1365   0019A8  EFC9  F00C         	goto	l4036
  1366   0019AC                     u1960:
  1367   0019AC                     
  1368                           ;Labs/Lab05_VariableSpeedRotate/VSR.c: 79:         LATAbits.LATA5 = rotateReg & 1;
  1369   0019AC  C557  F54A         	movff	_rotateReg@VSR$F279,??_VSR
  1370   0019B0  0E01               	movlw	1
  1371   0019B2  164A               	andwf	??_VSR^(0+1280),f,c
  1372   0019B4  3A4A               	swapf	??_VSR^(0+1280),f,c
  1373   0019B6  464A               	rlncf	??_VSR^(0+1280),f,c
  1374   0019B8  50BE               	movf	190,w,c	;volatile
  1375   0019BA  184A               	xorwf	??_VSR^(0+1280),w,c
  1376   0019BC  0BDF               	andlw	-33
  1377   0019BE  184A               	xorwf	??_VSR^(0+1280),w,c
  1378   0019C0  6EBE               	movwf	190,c	;volatile
  1379                           
  1380                           ;Labs/Lab05_VariableSpeedRotate/VSR.c: 80:         LATAbits.LATA1 = (rotateReg & 2) >> 1
      +                          ;
  1381   0019C2  C557  F54A         	movff	_rotateReg@VSR$F279,??_VSR
  1382   0019C6  90D8               	bcf	status,0,c
  1383   0019C8  324A               	rrcf	??_VSR^(0+1280),f,c
  1384   0019CA  0E01               	movlw	1
  1385   0019CC  164A               	andwf	??_VSR^(0+1280),f,c
  1386   0019CE  464A               	rlncf	??_VSR^(0+1280),f,c
  1387   0019D0  50BE               	movf	190,w,c	;volatile
  1388   0019D2  184A               	xorwf	??_VSR^(0+1280),w,c
  1389   0019D4  0BFD               	andlw	-3
  1390   0019D6  184A               	xorwf	??_VSR^(0+1280),w,c
  1391   0019D8  6EBE               	movwf	190,c	;volatile
  1392                           
  1393                           ;Labs/Lab05_VariableSpeedRotate/VSR.c: 81:         LATAbits.LATA2 = (rotateReg & 4) >> 2
      +                          ;
  1394   0019DA  C557  F54A         	movff	_rotateReg@VSR$F279,??_VSR
  1395   0019DE  90D8               	bcf	status,0,c
  1396   0019E0  324A               	rrcf	??_VSR^(0+1280),f,c
  1397   0019E2  90D8               	bcf	status,0,c
  1398   0019E4  324A               	rrcf	??_VSR^(0+1280),f,c
  1399   0019E6  0E01               	movlw	1
  1400   0019E8  164A               	andwf	??_VSR^(0+1280),f,c
  1401   0019EA  464A               	rlncf	??_VSR^(0+1280),f,c
  1402   0019EC  464A               	rlncf	??_VSR^(0+1280),f,c
  1403   0019EE  50BE               	movf	190,w,c	;volatile
  1404   0019F0  184A               	xorwf	??_VSR^(0+1280),w,c
  1405   0019F2  0BFB               	andlw	-5
  1406   0019F4  184A               	xorwf	??_VSR^(0+1280),w,c
  1407   0019F6  6EBE               	movwf	190,c	;volatile
  1408                           
  1409                           ;Labs/Lab05_VariableSpeedRotate/VSR.c: 82:         LATCbits.LATC5 = (rotateReg & 8) >> 3
      +                          ;
  1410   0019F8  C557  F54A         	movff	_rotateReg@VSR$F279,??_VSR
  1411   0019FC  90D8               	bcf	status,0,c
  1412   0019FE  324A               	rrcf	??_VSR^(0+1280),f,c
  1413   001A00  90D8               	bcf	status,0,c
  1414   001A02  324A               	rrcf	??_VSR^(0+1280),f,c
  1415   001A04  90D8               	bcf	status,0,c
  1416   001A06  324A               	rrcf	??_VSR^(0+1280),f,c
  1417   001A08  0E01               	movlw	1
  1418   001A0A  164A               	andwf	??_VSR^(0+1280),f,c
  1419   001A0C  3A4A               	swapf	??_VSR^(0+1280),f,c
  1420   001A0E  464A               	rlncf	??_VSR^(0+1280),f,c
  1421   001A10  50C0               	movf	192,w,c	;volatile
  1422   001A12  184A               	xorwf	??_VSR^(0+1280),w,c
  1423   001A14  0BDF               	andlw	-33
  1424   001A16  184A               	xorwf	??_VSR^(0+1280),w,c
  1425   001A18  6EC0               	movwf	192,c	;volatile
  1426                           
  1427                           ;Labs/Lab05_VariableSpeedRotate/VSR.c: 84:         rotateReg = rotateReg << 1;
  1428   001A1A  5057               	movf	_rotateReg@VSR$F279^(0+1280),w,c
  1429   001A1C  2457               	addwf	_rotateReg@VSR$F279^(0+1280),w,c
  1430   001A1E  6E57               	movwf	_rotateReg@VSR$F279^(0+1280),c
  1431                           
  1432                           ;Labs/Lab05_VariableSpeedRotate/VSR.c: 87:         if (rotateReg == 16) {
  1433   001A20  0E10               	movlw	16
  1434   001A22  1857               	xorwf	_rotateReg@VSR$F279^(0+1280),w,c
  1435   001A24  A4D8               	btfss	status,2,c
  1436   001A26  EF17  F00D         	goto	u1971
  1437   001A2A  EF19  F00D         	goto	u1970
  1438   001A2E                     u1971:
  1439   001A2E  EF1B  F00D         	goto	l155
  1440   001A32                     u1970:
  1441   001A32                     
  1442                           ;Labs/Lab05_VariableSpeedRotate/VSR.c: 88:             rotateReg = 1;
  1443   001A32  0E01               	movlw	1
  1444   001A34  6E57               	movwf	_rotateReg@VSR$F279^(0+1280),c
  1445   001A36                     l155:
  1446                           
  1447                           ;Labs/Lab05_VariableSpeedRotate/VSR.c: 92:     if (switchEvent) {
  1448   001A36  505E               	movf	_switchEvent^(0+1280),w,c
  1449   001A38  B4D8               	btfsc	status,2,c
  1450   001A3A  EF21  F00D         	goto	u1981
  1451   001A3E  EF23  F00D         	goto	u1980
  1452   001A42                     u1981:
  1453   001A42  EF25  F00D         	goto	l161
  1454   001A46                     u1980:
  1455   001A46                     
  1456                           ;Labs/Lab05_VariableSpeedRotate/VSR.c: 93:         labState = 0;
  1457   001A46  0E00               	movlw	0
  1458   001A48  6E5D               	movwf	_labState^(0+1280),c
  1459   001A4A                     l161:
  1460   001A4A  0012               	return		;funcret
  1461   001A4C                     __end_of_VSR:
  1462                           	callstack 0
  1463                           
  1464 ;; *************** function _Timer1_Lab *****************
  1465 ;; Defined at:
  1466 ;;		line 57 in file "Labs/Lab07_Timers/Timer1.c"
  1467 ;; Parameters:    Size  Location     Type
  1468 ;;		None
  1469 ;; Auto vars:     Size  Location     Type
  1470 ;;		None
  1471 ;; Return value:  Size  Location     Type
  1472 ;;                  1    wreg      void 
  1473 ;; Registers used:
  1474 ;;		wreg, status,2, status,0, cstack
  1475 ;; Tracked objects:
  1476 ;;		On entry : 0/0
  1477 ;;		On exit  : 0/0
  1478 ;;		Unchanged: 0/0
  1479 ;; Data sizes:     COMRAM   BANK5   BANK6   BANK7   BANK8   BANK9  BANK10  BANK11  BANK12  BANK13  BANK14  BANK15  BANK1
      +6  BANK17  BANK18  BANK19  BANK20
  1480 ;;      Params:         0       0       0       0       0       0       0       0       0       0       0       0       
      +0       0       0       0       0
  1481 ;;      Locals:         0       0       0       0       0       0       0       0       0       0       0       0       
      +0       0       0       0       0
  1482 ;;      Temps:          1       0       0       0       0       0       0       0       0       0       0       0       
      +0       0       0       0       0
  1483 ;;      Totals:         1       0       0       0       0       0       0       0       0       0       0       0       
      +0       0       0       0       0
  1484 ;;Total ram usage:        1 bytes
  1485 ;; Hardware stack levels used: 1
  1486 ;; Hardware stack levels required when called: 5
  1487 ;; This function calls:
  1488 ;;		_Timer1_Reload
  1489 ;;		_Timer1_Start
  1490 ;;		_Timer1_Stop
  1491 ;; This function is called by:
  1492 ;;		_main
  1493 ;; This function uses a non-reentrant model
  1494 ;;
  1495                           
  1496                           	psect	text4
  1497   001B54                     __ptext4:
  1498                           	callstack 0
  1499   001B54                     _Timer1_Lab:
  1500                           	callstack 121
  1501   001B54                     
  1502                           ;Labs/Lab07_Timers/Timer1.c: 58:     if (labState == 0) {
  1503   001B54  505D               	movf	_labState^(0+1280),w,c
  1504   001B56  A4D8               	btfss	status,2,c
  1505   001B58  EFB0  F00D         	goto	u2021
  1506   001B5C  EFB2  F00D         	goto	u2020
  1507   001B60                     u2021:
  1508   001B60  EFBC  F00D         	goto	l4094
  1509   001B64                     u2020:
  1510   001B64  0E00               	movlw	0
  1511   001B66  6EBE               	movwf	190,c	;volatile
  1512   001B68  9AC0               	bcf	192,5,c	;volatile
  1513   001B6A  8ABE               	bsf	190,5,c	;volatile
  1514   001B6C                     
  1515                           ;Labs/Lab07_Timers/Timer1.c: 63:         rotateReg = 1;
  1516   001B6C  0E01               	movlw	1
  1517   001B6E  6E56               	movwf	_rotateReg@Timer1$F381^(0+1280),c
  1518   001B70                     
  1519                           ;Labs/Lab07_Timers/Timer1.c: 65:         Timer1_Start();
  1520   001B70  ECA4  F015         	call	_Timer1_Start	;wreg free
  1521   001B74                     
  1522                           ;Labs/Lab07_Timers/Timer1.c: 67:         labState = 1;
  1523   001B74  0E01               	movlw	1
  1524   001B76  6E5D               	movwf	_labState^(0+1280),c
  1525   001B78                     l4094:
  1526                           
  1527                           ;Labs/Lab07_Timers/Timer1.c: 70:     if (labState == 1) {
  1528   001B78  045D               	decf	_labState^(0+1280),w,c
  1529   001B7A  A4D8               	btfss	status,2,c
  1530   001B7C  EFC2  F00D         	goto	u2031
  1531   001B80  EFC4  F00D         	goto	u2030
  1532   001B84                     u2031:
  1533   001B84  EF13  F00E         	goto	l237
  1534   001B88                     u2030:
  1535   001B88                     l238:
  1536   001B88  A8B6               	btfss	182,4,c	;volatile
  1537   001B8A  EFC9  F00D         	goto	u2041
  1538   001B8E  EFCB  F00D         	goto	u2040
  1539   001B92                     u2041:
  1540   001B92  EFC4  F00D         	goto	l238
  1541   001B96                     u2040:
  1542   001B96  98B6               	bcf	182,4,c	;volatile
  1543   001B98                     
  1544                           ;Labs/Lab07_Timers/Timer1.c: 73:         Timer1_Reload();
  1545   001B98  EC4E  F015         	call	_Timer1_Reload	;wreg free
  1546   001B9C                     
  1547                           ;Labs/Lab07_Timers/Timer1.c: 75:         rotateReg = rotateReg << 1;
  1548   001B9C  5056               	movf	_rotateReg@Timer1$F381^(0+1280),w,c
  1549   001B9E  2456               	addwf	_rotateReg@Timer1$F381^(0+1280),w,c
  1550   001BA0  6E56               	movwf	_rotateReg@Timer1$F381^(0+1280),c
  1551   001BA2                     
  1552                           ;Labs/Lab07_Timers/Timer1.c: 78:         if (rotateReg == 16) {
  1553   001BA2  0E10               	movlw	16
  1554   001BA4  1856               	xorwf	_rotateReg@Timer1$F381^(0+1280),w,c
  1555   001BA6  A4D8               	btfss	status,2,c
  1556   001BA8  EFD8  F00D         	goto	u2051
  1557   001BAC  EFDA  F00D         	goto	u2050
  1558   001BB0                     u2051:
  1559   001BB0  EFDC  F00D         	goto	l4106
  1560   001BB4                     u2050:
  1561   001BB4                     
  1562                           ;Labs/Lab07_Timers/Timer1.c: 79:             rotateReg = 1;
  1563   001BB4  0E01               	movlw	1
  1564   001BB6  6E56               	movwf	_rotateReg@Timer1$F381^(0+1280),c
  1565   001BB8                     l4106:
  1566                           
  1567                           ;Labs/Lab07_Timers/Timer1.c: 83:         LATAbits.LATA5 = rotateReg & 1;
  1568   001BB8  C556  F506         	movff	_rotateReg@Timer1$F381,??_Timer1_Lab
  1569   001BBC  0E01               	movlw	1
  1570   001BBE  1606               	andwf	??_Timer1_Lab^(0+1280),f,c
  1571   001BC0  3A06               	swapf	??_Timer1_Lab^(0+1280),f,c
  1572   001BC2  4606               	rlncf	??_Timer1_Lab^(0+1280),f,c
  1573   001BC4  50BE               	movf	190,w,c	;volatile
  1574   001BC6  1806               	xorwf	??_Timer1_Lab^(0+1280),w,c
  1575   001BC8  0BDF               	andlw	-33
  1576   001BCA  1806               	xorwf	??_Timer1_Lab^(0+1280),w,c
  1577   001BCC  6EBE               	movwf	190,c	;volatile
  1578   001BCE                     
  1579                           ;Labs/Lab07_Timers/Timer1.c: 84:         LATAbits.LATA1 = (rotateReg & 2) >> 1;
  1580   001BCE  C556  F506         	movff	_rotateReg@Timer1$F381,??_Timer1_Lab
  1581   001BD2  90D8               	bcf	status,0,c
  1582   001BD4  3206               	rrcf	??_Timer1_Lab^(0+1280),f,c
  1583   001BD6  0E01               	movlw	1
  1584   001BD8  1606               	andwf	??_Timer1_Lab^(0+1280),f,c
  1585   001BDA  4606               	rlncf	??_Timer1_Lab^(0+1280),f,c
  1586   001BDC  50BE               	movf	190,w,c	;volatile
  1587   001BDE  1806               	xorwf	??_Timer1_Lab^(0+1280),w,c
  1588   001BE0  0BFD               	andlw	-3
  1589   001BE2  1806               	xorwf	??_Timer1_Lab^(0+1280),w,c
  1590   001BE4  6EBE               	movwf	190,c	;volatile
  1591   001BE6                     
  1592                           ;Labs/Lab07_Timers/Timer1.c: 85:         LATAbits.LATA2 = (rotateReg & 4) >> 2;
  1593   001BE6  C556  F506         	movff	_rotateReg@Timer1$F381,??_Timer1_Lab
  1594   001BEA  90D8               	bcf	status,0,c
  1595   001BEC  3206               	rrcf	??_Timer1_Lab^(0+1280),f,c
  1596   001BEE  90D8               	bcf	status,0,c
  1597   001BF0  3206               	rrcf	??_Timer1_Lab^(0+1280),f,c
  1598   001BF2  0E01               	movlw	1
  1599   001BF4  1606               	andwf	??_Timer1_Lab^(0+1280),f,c
  1600   001BF6  4606               	rlncf	??_Timer1_Lab^(0+1280),f,c
  1601   001BF8  4606               	rlncf	??_Timer1_Lab^(0+1280),f,c
  1602   001BFA  50BE               	movf	190,w,c	;volatile
  1603   001BFC  1806               	xorwf	??_Timer1_Lab^(0+1280),w,c
  1604   001BFE  0BFB               	andlw	-5
  1605   001C00  1806               	xorwf	??_Timer1_Lab^(0+1280),w,c
  1606   001C02  6EBE               	movwf	190,c	;volatile
  1607   001C04                     
  1608                           ;Labs/Lab07_Timers/Timer1.c: 86:         LATCbits.LATC5 = (rotateReg & 8) >> 3;
  1609   001C04  C556  F506         	movff	_rotateReg@Timer1$F381,??_Timer1_Lab
  1610   001C08  90D8               	bcf	status,0,c
  1611   001C0A  3206               	rrcf	??_Timer1_Lab^(0+1280),f,c
  1612   001C0C  90D8               	bcf	status,0,c
  1613   001C0E  3206               	rrcf	??_Timer1_Lab^(0+1280),f,c
  1614   001C10  90D8               	bcf	status,0,c
  1615   001C12  3206               	rrcf	??_Timer1_Lab^(0+1280),f,c
  1616   001C14  0E01               	movlw	1
  1617   001C16  1606               	andwf	??_Timer1_Lab^(0+1280),f,c
  1618   001C18  3A06               	swapf	??_Timer1_Lab^(0+1280),f,c
  1619   001C1A  4606               	rlncf	??_Timer1_Lab^(0+1280),f,c
  1620   001C1C  50C0               	movf	192,w,c	;volatile
  1621   001C1E  1806               	xorwf	??_Timer1_Lab^(0+1280),w,c
  1622   001C20  0BDF               	andlw	-33
  1623   001C22  1806               	xorwf	??_Timer1_Lab^(0+1280),w,c
  1624   001C24  6EC0               	movwf	192,c	;volatile
  1625   001C26                     l237:
  1626                           
  1627                           ;Labs/Lab07_Timers/Timer1.c: 90:     if (switchEvent) {
  1628   001C26  505E               	movf	_switchEvent^(0+1280),w,c
  1629   001C28  B4D8               	btfsc	status,2,c
  1630   001C2A  EF19  F00E         	goto	u2061
  1631   001C2E  EF1B  F00E         	goto	u2060
  1632   001C32                     u2061:
  1633   001C32  EF1F  F00E         	goto	l245
  1634   001C36                     u2060:
  1635   001C36                     
  1636                           ;Labs/Lab07_Timers/Timer1.c: 91:         Timer1_Stop();
  1637   001C36  ECA1  F015         	call	_Timer1_Stop	;wreg free
  1638   001C3A                     
  1639                           ;Labs/Lab07_Timers/Timer1.c: 92:         labState = 0;
  1640   001C3A  0E00               	movlw	0
  1641   001C3C  6E5D               	movwf	_labState^(0+1280),c
  1642   001C3E                     l245:
  1643   001C3E  0012               	return		;funcret
  1644   001C40                     __end_of_Timer1_Lab:
  1645                           	callstack 0
  1646                           
  1647 ;; *************** function _SleepWakeUp *****************
  1648 ;; Defined at:
  1649 ;;		line 57 in file "Labs/Lab09_SleepWakeup/SleepWakeUp.c"
  1650 ;; Parameters:    Size  Location     Type
  1651 ;;		None
  1652 ;; Auto vars:     Size  Location     Type
  1653 ;;		None
  1654 ;; Return value:  Size  Location     Type
  1655 ;;                  1    wreg      void 
  1656 ;; Registers used:
  1657 ;;		wreg, status,2, status,0
  1658 ;; Tracked objects:
  1659 ;;		On entry : 0/0
  1660 ;;		On exit  : 0/0
  1661 ;;		Unchanged: 0/0
  1662 ;; Data sizes:     COMRAM   BANK5   BANK6   BANK7   BANK8   BANK9  BANK10  BANK11  BANK12  BANK13  BANK14  BANK15  BANK1
      +6  BANK17  BANK18  BANK19  BANK20
  1663 ;;      Params:         0       0       0       0       0       0       0       0       0       0       0       0       
      +0       0       0       0       0
  1664 ;;      Locals:         0       0       0       0       0       0       0       0       0       0       0       0       
      +0       0       0       0       0
  1665 ;;      Temps:          0       0       0       0       0       0       0       0       0       0       0       0       
      +0       0       0       0       0
  1666 ;;      Totals:         0       0       0       0       0       0       0       0       0       0       0       0       
      +0       0       0       0       0
  1667 ;;Total ram usage:        0 bytes
  1668 ;; Hardware stack levels used: 1
  1669 ;; Hardware stack levels required when called: 3
  1670 ;; This function calls:
  1671 ;;		Nothing
  1672 ;; This function is called by:
  1673 ;;		_main
  1674 ;; This function uses a non-reentrant model
  1675 ;;
  1676                           
  1677                           	psect	text5
  1678   002516                     __ptext5:
  1679                           	callstack 0
  1680   002516                     _SleepWakeUp:
  1681                           	callstack 123
  1682   002516                     
  1683                           ;Labs/Lab09_SleepWakeup/SleepWakeUp.c: 59:     if (labState == 0) {
  1684   002516  505D               	movf	_labState^(0+1280),w,c
  1685   002518  A4D8               	btfss	status,2,c
  1686   00251A  EF91  F012         	goto	u771
  1687   00251E  EF93  F012         	goto	u770
  1688   002522                     u771:
  1689   002522  EF9E  F012         	goto	l2916
  1690   002526                     u770:
  1691   002526                     
  1692                           ;Labs/Lab09_SleepWakeup/SleepWakeUp.c: 60:         LATAbits.LATA5 = LATAbits.LATA2 = 1;
  1693   002526  84BE               	bsf	190,2,c	;volatile
  1694   002528  8ABE               	bsf	190,5,c	;volatile
  1695                           
  1696                           ;Labs/Lab09_SleepWakeup/SleepWakeUp.c: 61:         LATAbits.LATA1 = LATCbits.LATC5 = 0;
  1697   00252A  9AC0               	bcf	192,5,c	;volatile
  1698   00252C  92BE               	bcf	190,1,c	;volatile
  1699                           
  1700                           ;Labs/Lab09_SleepWakeup/SleepWakeUp.c: 62:         ( WDTCON0bits.SWDTEN = 1);
  1701   00252E  0100               	movlb	0	; () banked
  1702   002530  8178               	bsf	120,0,b	;volatile
  1703   002532  0003               	sleep		;# 
  1704                           
  1705                           ;Labs/Lab09_SleepWakeup/SleepWakeUp.c: 65:         __nop();
  1706   002534  F000               	nop	
  1707                           
  1708                           ;Labs/Lab09_SleepWakeup/SleepWakeUp.c: 66:         __nop();
  1709   002536  F000               	nop	
  1710   002538                     
  1711                           ;Labs/Lab09_SleepWakeup/SleepWakeUp.c: 68:         labState = 1;
  1712   002538  0E01               	movlw	1
  1713   00253A  6E5D               	movwf	_labState^(0+1280),c
  1714   00253C                     l2916:
  1715                           
  1716                           ;Labs/Lab09_SleepWakeup/SleepWakeUp.c: 71:     if (labState == 1) {
  1717   00253C  045D               	decf	_labState^(0+1280),w,c
  1718   00253E  A4D8               	btfss	status,2,c
  1719   002540  EFA4  F012         	goto	u781
  1720   002544  EFA6  F012         	goto	u780
  1721   002548                     u781:
  1722   002548  EFAC  F012         	goto	l2920
  1723   00254C                     u780:
  1724   00254C                     
  1725                           ;Labs/Lab09_SleepWakeup/SleepWakeUp.c: 74:         LATAbits.LATA5 = LATAbits.LATA2 = 0;
  1726   00254C  94BE               	bcf	190,2,c	;volatile
  1727   00254E  9ABE               	bcf	190,5,c	;volatile
  1728                           
  1729                           ;Labs/Lab09_SleepWakeup/SleepWakeUp.c: 75:         LATAbits.LATA1 = LATCbits.LATC5 = 1;
  1730   002550  8AC0               	bsf	192,5,c	;volatile
  1731   002552  82BE               	bsf	190,1,c	;volatile
  1732                           
  1733                           ;Labs/Lab09_SleepWakeup/SleepWakeUp.c: 77:         (WDTCON0bits.SWDTEN = 0);
  1734   002554  0100               	movlb	0	; () banked
  1735   002556  9178               	bcf	120,0,b	;volatile
  1736   002558                     l2920:
  1737                           
  1738                           ;Labs/Lab09_SleepWakeup/SleepWakeUp.c: 80:     if (switchEvent) {
  1739   002558  505E               	movf	_switchEvent^(0+1280),w,c
  1740   00255A  B4D8               	btfsc	status,2,c
  1741   00255C  EFB2  F012         	goto	u791
  1742   002560  EFB4  F012         	goto	u790
  1743   002564                     u791:
  1744   002564  EFB6  F012         	goto	l353
  1745   002568                     u790:
  1746   002568                     
  1747                           ;Labs/Lab09_SleepWakeup/SleepWakeUp.c: 81:         labState = 0;
  1748   002568  0E00               	movlw	0
  1749   00256A  6E5D               	movwf	_labState^(0+1280),c
  1750   00256C                     l353:
  1751   00256C  0012               	return		;funcret
  1752   00256E                     __end_of_SleepWakeUp:
  1753                           	callstack 0
  1754                           
  1755 ;; *************** function _SYSTEM_Initialize *****************
  1756 ;; Defined at:
  1757 ;;		line 37 in file "mcc_generated_files/system/src/system.c"
  1758 ;; Parameters:    Size  Location     Type
  1759 ;;		None
  1760 ;; Auto vars:     Size  Location     Type
  1761 ;;		None
  1762 ;; Return value:  Size  Location     Type
  1763 ;;                  1    wreg      void 
  1764 ;; Registers used:
  1765 ;;		wreg, status,2, status,0, cstack
  1766 ;; Tracked objects:
  1767 ;;		On entry : 0/0
  1768 ;;		On exit  : 0/0
  1769 ;;		Unchanged: 0/0
  1770 ;; Data sizes:     COMRAM   BANK5   BANK6   BANK7   BANK8   BANK9  BANK10  BANK11  BANK12  BANK13  BANK14  BANK15  BANK1
      +6  BANK17  BANK18  BANK19  BANK20
  1771 ;;      Params:         0       0       0       0       0       0       0       0       0       0       0       0       
      +0       0       0       0       0
  1772 ;;      Locals:         0       0       0       0       0       0       0       0       0       0       0       0       
      +0       0       0       0       0
  1773 ;;      Temps:          0       0       0       0       0       0       0       0       0       0       0       0       
      +0       0       0       0       0
  1774 ;;      Totals:         0       0       0       0       0       0       0       0       0       0       0       0       
      +0       0       0       0       0
  1775 ;;Total ram usage:        0 bytes
  1776 ;; Hardware stack levels used: 1
  1777 ;; Hardware stack levels required when called: 5
  1778 ;; This function calls:
  1779 ;;		_ADCC_Initialize
  1780 ;;		_CLOCK_Initialize
  1781 ;;		_INTERRUPT_Initialize
  1782 ;;		_NVM_Initialize
  1783 ;;		_PIN_MANAGER_Initialize
  1784 ;;		_PWM1_16BIT_Initialize
  1785 ;;		_TMR2_Initialize
  1786 ;;		_Timer0_Initialize
  1787 ;;		_Timer1_Initialize
  1788 ;;		_UART1_Initialize
  1789 ;; This function is called by:
  1790 ;;		_main
  1791 ;; This function uses a non-reentrant model
  1792 ;;
  1793                           
  1794                           	psect	text6
  1795   0028FE                     __ptext6:
  1796                           	callstack 0
  1797   0028FE                     _SYSTEM_Initialize:
  1798                           	callstack 121
  1799   0028FE                     
  1800                           ;mcc_generated_files/system/src/system.c: 39:     CLOCK_Initialize();
  1801   0028FE  EC40  F015         	call	_CLOCK_Initialize	;wreg free
  1802                           
  1803                           ;mcc_generated_files/system/src/system.c: 40:     PIN_MANAGER_Initialize();
  1804   002902  EC1E  F011         	call	_PIN_MANAGER_Initialize	;wreg free
  1805                           
  1806                           ;mcc_generated_files/system/src/system.c: 41:     ADCC_Initialize();
  1807   002906  EC5B  F012         	call	_ADCC_Initialize	;wreg free
  1808   00290A                     
  1809                           ;mcc_generated_files/system/src/system.c: 42:     NVM_Initialize();
  1810   00290A  EC95  F015         	call	_NVM_Initialize	;wreg free
  1811   00290E                     
  1812                           ;mcc_generated_files/system/src/system.c: 43:     PWM1_16BIT_Initialize();
  1813   00290E  EC24  F012         	call	_PWM1_16BIT_Initialize	;wreg free
  1814   002912                     
  1815                           ;mcc_generated_files/system/src/system.c: 44:     Timer0_Initialize();
  1816   002912  ECD3  F014         	call	_Timer0_Initialize	;wreg free
  1817   002916                     
  1818                           ;mcc_generated_files/system/src/system.c: 45:     Timer1_Initialize();
  1819   002916  EC83  F013         	call	_Timer1_Initialize	;wreg free
  1820   00291A                     
  1821                           ;mcc_generated_files/system/src/system.c: 46:     TMR2_Initialize();
  1822   00291A  EC94  F014         	call	_TMR2_Initialize	;wreg free
  1823   00291E                     
  1824                           ;mcc_generated_files/system/src/system.c: 47:     UART1_Initialize();
  1825   00291E  ECA8  F011         	call	_UART1_Initialize	;wreg free
  1826   002922                     
  1827                           ;mcc_generated_files/system/src/system.c: 48:     INTERRUPT_Initialize();
  1828   002922  EC09  F014         	call	_INTERRUPT_Initialize	;wreg free
  1829   002926  0012               	return		;funcret
  1830   002928                     __end_of_SYSTEM_Initialize:
  1831                           	callstack 0
  1832                           
  1833 ;; *************** function _UART1_Initialize *****************
  1834 ;; Defined at:
  1835 ;;		line 95 in file "mcc_generated_files/uart/src/uart1.c"
  1836 ;; Parameters:    Size  Location     Type
  1837 ;;		None
  1838 ;; Auto vars:     Size  Location     Type
  1839 ;;		None
  1840 ;; Return value:  Size  Location     Type
  1841 ;;                  1    wreg      void 
  1842 ;; Registers used:
  1843 ;;		wreg, status,2, status,0, cstack
  1844 ;; Tracked objects:
  1845 ;;		On entry : 0/0
  1846 ;;		On exit  : 0/0
  1847 ;;		Unchanged: 0/0
  1848 ;; Data sizes:     COMRAM   BANK5   BANK6   BANK7   BANK8   BANK9  BANK10  BANK11  BANK12  BANK13  BANK14  BANK15  BANK1
      +6  BANK17  BANK18  BANK19  BANK20
  1849 ;;      Params:         0       0       0       0       0       0       0       0       0       0       0       0       
      +0       0       0       0       0
  1850 ;;      Locals:         0       0       0       0       0       0       0       0       0       0       0       0       
      +0       0       0       0       0
  1851 ;;      Temps:          0       0       0       0       0       0       0       0       0       0       0       0       
      +0       0       0       0       0
  1852 ;;      Totals:         0       0       0       0       0       0       0       0       0       0       0       0       
      +0       0       0       0       0
  1853 ;;Total ram usage:        0 bytes
  1854 ;; Hardware stack levels used: 1
  1855 ;; Hardware stack levels required when called: 4
  1856 ;; This function calls:
  1857 ;;		_UART1_FramingErrorCallbackRegister
  1858 ;;		_UART1_OverrunErrorCallbackRegister
  1859 ;;		_UART1_ParityErrorCallbackRegister
  1860 ;; This function is called by:
  1861 ;;		_SYSTEM_Initialize
  1862 ;; This function uses a non-reentrant model
  1863 ;;
  1864                           
  1865                           	psect	text7
  1866   002350                     __ptext7:
  1867                           	callstack 0
  1868   002350                     _UART1_Initialize:
  1869                           	callstack 121
  1870   002350                     
  1871                           ;mcc_generated_files/uart/src/uart1.c: 101:     U1RXB = 0x0;
  1872   002350  0E00               	movlw	0
  1873   002352  0102               	movlb	2	; () banked
  1874   002354  6FA1               	movwf	161,b	;volatile
  1875                           
  1876                           ;mcc_generated_files/uart/src/uart1.c: 103:     U1RXCHK = 0x0;
  1877   002356  0E00               	movlw	0
  1878   002358  6FA2               	movwf	162,b	;volatile
  1879                           
  1880                           ;mcc_generated_files/uart/src/uart1.c: 105:     U1TXB = 0x0;
  1881   00235A  0E00               	movlw	0
  1882   00235C  6FA3               	movwf	163,b	;volatile
  1883                           
  1884                           ;mcc_generated_files/uart/src/uart1.c: 107:     U1TXCHK = 0x0;
  1885   00235E  0E00               	movlw	0
  1886   002360  6FA4               	movwf	164,b	;volatile
  1887                           
  1888                           ;mcc_generated_files/uart/src/uart1.c: 109:     U1P1L = 0x0;
  1889   002362  0E00               	movlw	0
  1890   002364  6FA5               	movwf	165,b	;volatile
  1891                           
  1892                           ;mcc_generated_files/uart/src/uart1.c: 111:     U1P1H = 0x0;
  1893   002366  0E00               	movlw	0
  1894   002368  6FA6               	movwf	166,b	;volatile
  1895                           
  1896                           ;mcc_generated_files/uart/src/uart1.c: 113:     U1P2L = 0x0;
  1897   00236A  0E00               	movlw	0
  1898   00236C  6FA7               	movwf	167,b	;volatile
  1899                           
  1900                           ;mcc_generated_files/uart/src/uart1.c: 115:     U1P2H = 0x0;
  1901   00236E  0E00               	movlw	0
  1902   002370  6FA8               	movwf	168,b	;volatile
  1903                           
  1904                           ;mcc_generated_files/uart/src/uart1.c: 117:     U1P3L = 0x0;
  1905   002372  0E00               	movlw	0
  1906   002374  6FA9               	movwf	169,b	;volatile
  1907                           
  1908                           ;mcc_generated_files/uart/src/uart1.c: 119:     U1P3H = 0x0;
  1909   002376  0E00               	movlw	0
  1910   002378  6FAA               	movwf	170,b	;volatile
  1911                           
  1912                           ;mcc_generated_files/uart/src/uart1.c: 121:     U1CON0 = 0xB0;
  1913   00237A  0EB0               	movlw	176
  1914   00237C  6FAB               	movwf	171,b	;volatile
  1915                           
  1916                           ;mcc_generated_files/uart/src/uart1.c: 123:     U1CON1 = 0x80;
  1917   00237E  0E80               	movlw	128
  1918   002380  6FAC               	movwf	172,b	;volatile
  1919                           
  1920                           ;mcc_generated_files/uart/src/uart1.c: 125:     U1CON2 = 0x8;
  1921   002382  0E08               	movlw	8
  1922   002384  6FAD               	movwf	173,b	;volatile
  1923                           
  1924                           ;mcc_generated_files/uart/src/uart1.c: 127:     U1BRGL = 0xC;
  1925   002386  0E0C               	movlw	12
  1926   002388  6FAE               	movwf	174,b	;volatile
  1927                           
  1928                           ;mcc_generated_files/uart/src/uart1.c: 129:     U1BRGH = 0x0;
  1929   00238A  0E00               	movlw	0
  1930   00238C  6FAF               	movwf	175,b	;volatile
  1931                           
  1932                           ;mcc_generated_files/uart/src/uart1.c: 131:     U1FIFO = 0x20;
  1933   00238E  0E20               	movlw	32
  1934   002390  6FB0               	movwf	176,b	;volatile
  1935                           
  1936                           ;mcc_generated_files/uart/src/uart1.c: 133:     U1UIR = 0x0;
  1937   002392  0E00               	movlw	0
  1938   002394  6FB1               	movwf	177,b	;volatile
  1939                           
  1940                           ;mcc_generated_files/uart/src/uart1.c: 135:     U1ERRIR = 0x80;
  1941   002396  0E80               	movlw	128
  1942   002398  6FB2               	movwf	178,b	;volatile
  1943                           
  1944                           ;mcc_generated_files/uart/src/uart1.c: 137:     U1ERRIE = 0x0;
  1945   00239A  0E00               	movlw	0
  1946   00239C  6FB3               	movwf	179,b	;volatile
  1947   00239E                     
  1948                           ; BSR set to: 2
  1949                           ;mcc_generated_files/uart/src/uart1.c: 139:     UART1_FramingErrorCallbackRegister(UART1
      +                          _DefaultFramingErrorCallback);
  1950   00239E  0E00               	movlw	0
  1951   0023A0  6E04               	movwf	UART1_FramingErrorCallbackRegister@callbackHandler^(0+1280),c
  1952   0023A2  0E00               	movlw	0
  1953   0023A4  6E05               	movwf	(UART1_FramingErrorCallbackRegister@callbackHandler+1)^(0+1280),c
  1954   0023A6  EC32  F015         	call	_UART1_FramingErrorCallbackRegister	;wreg free
  1955   0023AA                     
  1956                           ;mcc_generated_files/uart/src/uart1.c: 140:     UART1_OverrunErrorCallbackRegister(UART1
      +                          _DefaultOverrunErrorCallback);
  1957   0023AA  0E00               	movlw	0
  1958   0023AC  6E04               	movwf	UART1_OverrunErrorCallbackRegister@callbackHandler^(0+1280),c
  1959   0023AE  0E00               	movlw	0
  1960   0023B0  6E05               	movwf	(UART1_OverrunErrorCallbackRegister@callbackHandler+1)^(0+1280),c
  1961   0023B2  EC24  F015         	call	_UART1_OverrunErrorCallbackRegister	;wreg free
  1962   0023B6                     
  1963                           ;mcc_generated_files/uart/src/uart1.c: 141:     UART1_ParityErrorCallbackRegister(UART1_
      +                          DefaultParityErrorCallback);
  1964   0023B6  0E00               	movlw	0
  1965   0023B8  6E04               	movwf	UART1_ParityErrorCallbackRegister@callbackHandler^(0+1280),c
  1966   0023BA  0E00               	movlw	0
  1967   0023BC  6E05               	movwf	(UART1_ParityErrorCallbackRegister@callbackHandler+1)^(0+1280),c
  1968   0023BE  EC16  F015         	call	_UART1_ParityErrorCallbackRegister	;wreg free
  1969   0023C2                     
  1970                           ;mcc_generated_files/uart/src/uart1.c: 143:     uart1RxLastError.status = 0;
  1971   0023C2  0E00               	movlw	0
  1972   0023C4  0105               	movlb	5	; () banked
  1973   0023C6  6F6B               	movwf	(_uart1RxLastError+1)& (0+255),b	;volatile
  1974   0023C8  0E00               	movlw	0
  1975   0023CA  6F6A               	movwf	_uart1RxLastError& (0+255),b	;volatile
  1976   0023CC                     
  1977                           ; BSR set to: 5
  1978   0023CC  0012               	return		;funcret
  1979   0023CE                     __end_of_UART1_Initialize:
  1980                           	callstack 0
  1981                           
  1982 ;; *************** function _UART1_ParityErrorCallbackRegister *****************
  1983 ;; Defined at:
  1984 ;;		line 340 in file "mcc_generated_files/uart/src/uart1.c"
  1985 ;; Parameters:    Size  Location     Type
  1986 ;;  callbackHand    2    3[COMRAM] PTR FTN()void 
  1987 ;;		 -> UART1_DefaultParityErrorCallback(1), 
  1988 ;; Auto vars:     Size  Location     Type
  1989 ;;		None
  1990 ;; Return value:  Size  Location     Type
  1991 ;;                  1    wreg      void 
  1992 ;; Registers used:
  1993 ;;		wreg, status,2, status,0
  1994 ;; Tracked objects:
  1995 ;;		On entry : 0/0
  1996 ;;		On exit  : 0/0
  1997 ;;		Unchanged: 0/0
  1998 ;; Data sizes:     COMRAM   BANK5   BANK6   BANK7   BANK8   BANK9  BANK10  BANK11  BANK12  BANK13  BANK14  BANK15  BANK1
      +6  BANK17  BANK18  BANK19  BANK20
  1999 ;;      Params:         2       0       0       0       0       0       0       0       0       0       0       0       
      +0       0       0       0       0
  2000 ;;      Locals:         0       0       0       0       0       0       0       0       0       0       0       0       
      +0       0       0       0       0
  2001 ;;      Temps:          0       0       0       0       0       0       0       0       0       0       0       0       
      +0       0       0       0       0
  2002 ;;      Totals:         2       0       0       0       0       0       0       0       0       0       0       0       
      +0       0       0       0       0
  2003 ;;Total ram usage:        2 bytes
  2004 ;; Hardware stack levels used: 1
  2005 ;; Hardware stack levels required when called: 3
  2006 ;; This function calls:
  2007 ;;		Nothing
  2008 ;; This function is called by:
  2009 ;;		_UART1_Initialize
  2010 ;; This function uses a non-reentrant model
  2011 ;;
  2012                           
  2013                           	psect	text8
  2014   002A2C                     __ptext8:
  2015                           	callstack 0
  2016   002A2C                     _UART1_ParityErrorCallbackRegister:
  2017                           	callstack 121
  2018   002A2C                     
  2019                           ;mcc_generated_files/uart/src/uart1.c: 340: void UART1_ParityErrorCallbackRegister(void 
      +                          (* callbackHandler)(void));mcc_generated_files/uart/src/uart1.c: 341: {;mcc_generated_fi
      +                          les/uart/src/uart1.c: 342:     if(((void*)0) != callbackHandler)
  2020   002A2C  5004               	movf	UART1_ParityErrorCallbackRegister@callbackHandler^(0+1280),w,c
  2021   002A2E  1005               	iorwf	(UART1_ParityErrorCallbackRegister@callbackHandler+1)^(0+1280),w,c
  2022   002A30  B4D8               	btfsc	status,2,c
  2023   002A32  EF1D  F015         	goto	u1791
  2024   002A36  EF1F  F015         	goto	u1790
  2025   002A3A                     u1791:
  2026   002A3A  EF23  F015         	goto	l1400
  2027   002A3E                     u1790:
  2028   002A3E                     
  2029                           ;mcc_generated_files/uart/src/uart1.c: 343:     {;mcc_generated_files/uart/src/uart1.c: 
      +                          344:         UART1_ParityErrorHandler = callbackHandler;
  2030   002A3E  C504  F564         	movff	UART1_ParityErrorCallbackRegister@callbackHandler,_UART1_ParityErrorHandler
  2031   002A42  C505  F565         	movff	UART1_ParityErrorCallbackRegister@callbackHandler+1,_UART1_ParityErrorHandler+1
  2032   002A46                     l1400:
  2033   002A46  0012               	return		;funcret
  2034   002A48                     __end_of_UART1_ParityErrorCallbackRegister:
  2035                           	callstack 0
  2036                           
  2037 ;; *************** function _UART1_OverrunErrorCallbackRegister *****************
  2038 ;; Defined at:
  2039 ;;		line 332 in file "mcc_generated_files/uart/src/uart1.c"
  2040 ;; Parameters:    Size  Location     Type
  2041 ;;  callbackHand    2    3[COMRAM] PTR FTN()void 
  2042 ;;		 -> UART1_DefaultOverrunErrorCallback(1), 
  2043 ;; Auto vars:     Size  Location     Type
  2044 ;;		None
  2045 ;; Return value:  Size  Location     Type
  2046 ;;                  1    wreg      void 
  2047 ;; Registers used:
  2048 ;;		wreg, status,2, status,0
  2049 ;; Tracked objects:
  2050 ;;		On entry : 0/0
  2051 ;;		On exit  : 0/0
  2052 ;;		Unchanged: 0/0
  2053 ;; Data sizes:     COMRAM   BANK5   BANK6   BANK7   BANK8   BANK9  BANK10  BANK11  BANK12  BANK13  BANK14  BANK15  BANK1
      +6  BANK17  BANK18  BANK19  BANK20
  2054 ;;      Params:         2       0       0       0       0       0       0       0       0       0       0       0       
      +0       0       0       0       0
  2055 ;;      Locals:         0       0       0       0       0       0       0       0       0       0       0       0       
      +0       0       0       0       0
  2056 ;;      Temps:          0       0       0       0       0       0       0       0       0       0       0       0       
      +0       0       0       0       0
  2057 ;;      Totals:         2       0       0       0       0       0       0       0       0       0       0       0       
      +0       0       0       0       0
  2058 ;;Total ram usage:        2 bytes
  2059 ;; Hardware stack levels used: 1
  2060 ;; Hardware stack levels required when called: 3
  2061 ;; This function calls:
  2062 ;;		Nothing
  2063 ;; This function is called by:
  2064 ;;		_UART1_Initialize
  2065 ;; This function uses a non-reentrant model
  2066 ;;
  2067                           
  2068                           	psect	text9
  2069   002A48                     __ptext9:
  2070                           	callstack 0
  2071   002A48                     _UART1_OverrunErrorCallbackRegister:
  2072                           	callstack 121
  2073   002A48                     
  2074                           ;mcc_generated_files/uart/src/uart1.c: 332: void UART1_OverrunErrorCallbackRegister(void
      +                           (* callbackHandler)(void));mcc_generated_files/uart/src/uart1.c: 333: {;mcc_generated_f
      +                          iles/uart/src/uart1.c: 334:     if(((void*)0) != callbackHandler)
  2075   002A48  5004               	movf	UART1_OverrunErrorCallbackRegister@callbackHandler^(0+1280),w,c
  2076   002A4A  1005               	iorwf	(UART1_OverrunErrorCallbackRegister@callbackHandler+1)^(0+1280),w,c
  2077   002A4C  B4D8               	btfsc	status,2,c
  2078   002A4E  EF2B  F015         	goto	u1781
  2079   002A52  EF2D  F015         	goto	u1780
  2080   002A56                     u1781:
  2081   002A56  EF31  F015         	goto	l1396
  2082   002A5A                     u1780:
  2083   002A5A                     
  2084                           ;mcc_generated_files/uart/src/uart1.c: 335:     {;mcc_generated_files/uart/src/uart1.c: 
      +                          336:         UART1_OverrunErrorHandler = callbackHandler;
  2085   002A5A  C504  F566         	movff	UART1_OverrunErrorCallbackRegister@callbackHandler,_UART1_OverrunErrorHandler
  2086   002A5E  C505  F567         	movff	UART1_OverrunErrorCallbackRegister@callbackHandler+1,_UART1_OverrunErrorHandler+1
  2087   002A62                     l1396:
  2088   002A62  0012               	return		;funcret
  2089   002A64                     __end_of_UART1_OverrunErrorCallbackRegister:
  2090                           	callstack 0
  2091                           
  2092 ;; *************** function _UART1_FramingErrorCallbackRegister *****************
  2093 ;; Defined at:
  2094 ;;		line 324 in file "mcc_generated_files/uart/src/uart1.c"
  2095 ;; Parameters:    Size  Location     Type
  2096 ;;  callbackHand    2    3[COMRAM] PTR FTN()void 
  2097 ;;		 -> UART1_DefaultFramingErrorCallback(1), 
  2098 ;; Auto vars:     Size  Location     Type
  2099 ;;		None
  2100 ;; Return value:  Size  Location     Type
  2101 ;;                  1    wreg      void 
  2102 ;; Registers used:
  2103 ;;		wreg, status,2, status,0
  2104 ;; Tracked objects:
  2105 ;;		On entry : 0/0
  2106 ;;		On exit  : 0/0
  2107 ;;		Unchanged: 0/0
  2108 ;; Data sizes:     COMRAM   BANK5   BANK6   BANK7   BANK8   BANK9  BANK10  BANK11  BANK12  BANK13  BANK14  BANK15  BANK1
      +6  BANK17  BANK18  BANK19  BANK20
  2109 ;;      Params:         2       0       0       0       0       0       0       0       0       0       0       0       
      +0       0       0       0       0
  2110 ;;      Locals:         0       0       0       0       0       0       0       0       0       0       0       0       
      +0       0       0       0       0
  2111 ;;      Temps:          0       0       0       0       0       0       0       0       0       0       0       0       
      +0       0       0       0       0
  2112 ;;      Totals:         2       0       0       0       0       0       0       0       0       0       0       0       
      +0       0       0       0       0
  2113 ;;Total ram usage:        2 bytes
  2114 ;; Hardware stack levels used: 1
  2115 ;; Hardware stack levels required when called: 3
  2116 ;; This function calls:
  2117 ;;		Nothing
  2118 ;; This function is called by:
  2119 ;;		_UART1_Initialize
  2120 ;; This function uses a non-reentrant model
  2121 ;;
  2122                           
  2123                           	psect	text10
  2124   002A64                     __ptext10:
  2125                           	callstack 0
  2126   002A64                     _UART1_FramingErrorCallbackRegister:
  2127                           	callstack 121
  2128   002A64                     
  2129                           ;mcc_generated_files/uart/src/uart1.c: 324: void UART1_FramingErrorCallbackRegister(void
      +                           (* callbackHandler)(void));mcc_generated_files/uart/src/uart1.c: 325: {;mcc_generated_f
      +                          iles/uart/src/uart1.c: 326:     if(((void*)0) != callbackHandler)
  2130   002A64  5004               	movf	UART1_FramingErrorCallbackRegister@callbackHandler^(0+1280),w,c
  2131   002A66  1005               	iorwf	(UART1_FramingErrorCallbackRegister@callbackHandler+1)^(0+1280),w,c
  2132   002A68  B4D8               	btfsc	status,2,c
  2133   002A6A  EF39  F015         	goto	u1771
  2134   002A6E  EF3B  F015         	goto	u1770
  2135   002A72                     u1771:
  2136   002A72  EF3F  F015         	goto	l1392
  2137   002A76                     u1770:
  2138   002A76                     
  2139                           ;mcc_generated_files/uart/src/uart1.c: 327:     {;mcc_generated_files/uart/src/uart1.c: 
      +                          328:         UART1_FramingErrorHandler = callbackHandler;
  2140   002A76  C504  F568         	movff	UART1_FramingErrorCallbackRegister@callbackHandler,_UART1_FramingErrorHandler
  2141   002A7A  C505  F569         	movff	UART1_FramingErrorCallbackRegister@callbackHandler+1,_UART1_FramingErrorHandler+1
  2142   002A7E                     l1392:
  2143   002A7E  0012               	return		;funcret
  2144   002A80                     __end_of_UART1_FramingErrorCallbackRegister:
  2145                           	callstack 0
  2146                           
  2147 ;; *************** function _Timer1_Initialize *****************
  2148 ;; Defined at:
  2149 ;;		line 57 in file "mcc_generated_files/timer/src/tmr1.c"
  2150 ;; Parameters:    Size  Location     Type
  2151 ;;		None
  2152 ;; Auto vars:     Size  Location     Type
  2153 ;;		None
  2154 ;; Return value:  Size  Location     Type
  2155 ;;                  1    wreg      void 
  2156 ;; Registers used:
  2157 ;;		wreg, status,2, status,0, cstack
  2158 ;; Tracked objects:
  2159 ;;		On entry : 0/0
  2160 ;;		On exit  : 0/0
  2161 ;;		Unchanged: 0/0
  2162 ;; Data sizes:     COMRAM   BANK5   BANK6   BANK7   BANK8   BANK9  BANK10  BANK11  BANK12  BANK13  BANK14  BANK15  BANK1
      +6  BANK17  BANK18  BANK19  BANK20
  2163 ;;      Params:         0       0       0       0       0       0       0       0       0       0       0       0       
      +0       0       0       0       0
  2164 ;;      Locals:         0       0       0       0       0       0       0       0       0       0       0       0       
      +0       0       0       0       0
  2165 ;;      Temps:          2       0       0       0       0       0       0       0       0       0       0       0       
      +0       0       0       0       0
  2166 ;;      Totals:         2       0       0       0       0       0       0       0       0       0       0       0       
      +0       0       0       0       0
  2167 ;;Total ram usage:        2 bytes
  2168 ;; Hardware stack levels used: 1
  2169 ;; Hardware stack levels required when called: 4
  2170 ;; This function calls:
  2171 ;;		_Timer1_OverflowCallbackRegister
  2172 ;; This function is called by:
  2173 ;;		_SYSTEM_Initialize
  2174 ;; This function uses a non-reentrant model
  2175 ;;
  2176                           
  2177                           	psect	text11
  2178   002706                     __ptext11:
  2179                           	callstack 0
  2180   002706                     _Timer1_Initialize:
  2181                           	callstack 121
  2182   002706                     
  2183                           ;mcc_generated_files/timer/src/tmr1.c: 60:     T1GCON = 0x0;
  2184   002706  0E00               	movlw	0
  2185   002708  0103               	movlb	3	; () banked
  2186   00270A  6F15               	movwf	21,b	;volatile
  2187                           
  2188                           ;mcc_generated_files/timer/src/tmr1.c: 62:     T1GATE = 0x0;
  2189   00270C  0E00               	movlw	0
  2190   00270E  6F16               	movwf	22,b	;volatile
  2191                           
  2192                           ;mcc_generated_files/timer/src/tmr1.c: 64:     T1CLK = 0x1;
  2193   002710  0E01               	movlw	1
  2194   002712  6F17               	movwf	23,b	;volatile
  2195                           
  2196                           ;mcc_generated_files/timer/src/tmr1.c: 66:     TMR1H = 0xB;
  2197   002714  0E0B               	movlw	11
  2198   002716  6F13               	movwf	19,b	;volatile
  2199                           
  2200                           ;mcc_generated_files/timer/src/tmr1.c: 68:     TMR1L = 0xDB;
  2201   002718  0EDB               	movlw	219
  2202   00271A  6F12               	movwf	18,b	;volatile
  2203   00271C                     
  2204                           ; BSR set to: 3
  2205                           ;mcc_generated_files/timer/src/tmr1.c: 71:     timer1ReloadVal=(uint16_t)((TMR1H << 8) |
      +                           TMR1L);
  2206   00271C  5112               	movf	18,w,b	;volatile
  2207   00271E  C313 F506          	movff	787,??_Timer1_Initialize	;volatile
  2208   002722  6A07               	clrf	(??_Timer1_Initialize+1)^(0+1280),c
  2209   002724  C506  F507         	movff	??_Timer1_Initialize,??_Timer1_Initialize+1
  2210   002728  6A06               	clrf	??_Timer1_Initialize^(0+1280),c
  2211   00272A  1006               	iorwf	??_Timer1_Initialize^(0+1280),w,c
  2212   00272C  0105               	movlb	5	; () banked
  2213   00272E  6F6E               	movwf	_timer1ReloadVal& (0+255),b	;volatile
  2214   002730  5007               	movf	(??_Timer1_Initialize+1)^(0+1280),w,c
  2215   002732  6F6F               	movwf	(_timer1ReloadVal+1)& (0+255),b	;volatile
  2216   002734                     
  2217                           ; BSR set to: 5
  2218                           ;mcc_generated_files/timer/src/tmr1.c: 74:     Timer1_OverflowCallbackRegister(Timer1_De
      +                          faultOverflowCallback);
  2219   002734  0E5E               	movlw	low _Timer1_DefaultOverflowCallback
  2220   002736  6E04               	movwf	Timer1_OverflowCallbackRegister@CallbackHandler^(0+1280),c
  2221   002738  0E2B               	movlw	high _Timer1_DefaultOverflowCallback
  2222   00273A  6E05               	movwf	(Timer1_OverflowCallbackRegister@CallbackHandler+1)^(0+1280),c
  2223   00273C  EC55  F015         	call	_Timer1_OverflowCallbackRegister	;wreg free
  2224   002740                     
  2225                           ;mcc_generated_files/timer/src/tmr1.c: 77:     PIR3bits.TMR1IF = 0;
  2226   002740  98B6               	bcf	182,4,c	;volatile
  2227   002742                     
  2228                           ;mcc_generated_files/timer/src/tmr1.c: 78:     PIR3bits.TMR1GIF = 0;
  2229   002742  9AB6               	bcf	182,5,c	;volatile
  2230   002744                     
  2231                           ;mcc_generated_files/timer/src/tmr1.c: 81:     T1CON = 0x0;
  2232   002744  0E00               	movlw	0
  2233   002746  0103               	movlb	3	; () banked
  2234   002748  6F14               	movwf	20,b	;volatile
  2235   00274A                     
  2236                           ; BSR set to: 3
  2237   00274A  0012               	return		;funcret
  2238   00274C                     __end_of_Timer1_Initialize:
  2239                           	callstack 0
  2240                           
  2241 ;; *************** function _Timer1_OverflowCallbackRegister *****************
  2242 ;; Defined at:
  2243 ;;		line 154 in file "mcc_generated_files/timer/src/tmr1.c"
  2244 ;; Parameters:    Size  Location     Type
  2245 ;;  CallbackHand    2    3[COMRAM] PTR FTN()void 
  2246 ;;		 -> Timer0_DefaultOverflowCallback(1), TMR2_DefaultOverflowCallback(1), Timer1_DefaultOverflowCallback(1), LAB_ISR(1
      +), 
  2247 ;; Auto vars:     Size  Location     Type
  2248 ;;		None
  2249 ;; Return value:  Size  Location     Type
  2250 ;;                  1    wreg      void 
  2251 ;; Registers used:
  2252 ;;		wreg, status,2, status,0
  2253 ;; Tracked objects:
  2254 ;;		On entry : 0/0
  2255 ;;		On exit  : 0/0
  2256 ;;		Unchanged: 0/0
  2257 ;; Data sizes:     COMRAM   BANK5   BANK6   BANK7   BANK8   BANK9  BANK10  BANK11  BANK12  BANK13  BANK14  BANK15  BANK1
      +6  BANK17  BANK18  BANK19  BANK20
  2258 ;;      Params:         2       0       0       0       0       0       0       0       0       0       0       0       
      +0       0       0       0       0
  2259 ;;      Locals:         0       0       0       0       0       0       0       0       0       0       0       0       
      +0       0       0       0       0
  2260 ;;      Temps:          0       0       0       0       0       0       0       0       0       0       0       0       
      +0       0       0       0       0
  2261 ;;      Totals:         2       0       0       0       0       0       0       0       0       0       0       0       
      +0       0       0       0       0
  2262 ;;Total ram usage:        2 bytes
  2263 ;; Hardware stack levels used: 1
  2264 ;; Hardware stack levels required when called: 3
  2265 ;; This function calls:
  2266 ;;		Nothing
  2267 ;; This function is called by:
  2268 ;;		_Timer1_Initialize
  2269 ;; This function uses a non-reentrant model
  2270 ;;
  2271                           
  2272                           	psect	text12
  2273   002AAA                     __ptext12:
  2274                           	callstack 0
  2275   002AAA                     _Timer1_OverflowCallbackRegister:
  2276                           	callstack 121
  2277   002AAA                     
  2278                           ;mcc_generated_files/timer/src/tmr1.c: 154: void Timer1_OverflowCallbackRegister(void (*
      +                           CallbackHandler)(void));mcc_generated_files/timer/src/tmr1.c: 155: {;mcc_generated_file
      +                          s/timer/src/tmr1.c: 156:     Timer1_OverflowCallback = CallbackHandler;
  2279   002AAA  C504  F59C         	movff	Timer1_OverflowCallbackRegister@CallbackHandler,_Timer1_OverflowCallback
  2280   002AAE  C505  F59D         	movff	Timer1_OverflowCallbackRegister@CallbackHandler+1,_Timer1_OverflowCallback+1
  2281   002AB2  0012               	return		;funcret
  2282   002AB4                     __end_of_Timer1_OverflowCallbackRegister:
  2283                           	callstack 0
  2284                           
  2285 ;; *************** function _Timer0_Initialize *****************
  2286 ;; Defined at:
  2287 ;;		line 49 in file "mcc_generated_files/timer/src/tmr0.c"
  2288 ;; Parameters:    Size  Location     Type
  2289 ;;		None
  2290 ;; Auto vars:     Size  Location     Type
  2291 ;;		None
  2292 ;; Return value:  Size  Location     Type
  2293 ;;                  1    wreg      void 
  2294 ;; Registers used:
  2295 ;;		wreg, status,2, status,0, cstack
  2296 ;; Tracked objects:
  2297 ;;		On entry : 0/0
  2298 ;;		On exit  : 0/0
  2299 ;;		Unchanged: 0/0
  2300 ;; Data sizes:     COMRAM   BANK5   BANK6   BANK7   BANK8   BANK9  BANK10  BANK11  BANK12  BANK13  BANK14  BANK15  BANK1
      +6  BANK17  BANK18  BANK19  BANK20
  2301 ;;      Params:         0       0       0       0       0       0       0       0       0       0       0       0       
      +0       0       0       0       0
  2302 ;;      Locals:         0       0       0       0       0       0       0       0       0       0       0       0       
      +0       0       0       0       0
  2303 ;;      Temps:          0       0       0       0       0       0       0       0       0       0       0       0       
      +0       0       0       0       0
  2304 ;;      Totals:         0       0       0       0       0       0       0       0       0       0       0       0       
      +0       0       0       0       0
  2305 ;;Total ram usage:        0 bytes
  2306 ;; Hardware stack levels used: 1
  2307 ;; Hardware stack levels required when called: 4
  2308 ;; This function calls:
  2309 ;;		_Timer0_OverflowCallbackRegister
  2310 ;; This function is called by:
  2311 ;;		_SYSTEM_Initialize
  2312 ;; This function uses a non-reentrant model
  2313 ;;
  2314                           
  2315                           	psect	text13
  2316   0029A6                     __ptext13:
  2317                           	callstack 0
  2318   0029A6                     _Timer0_Initialize:
  2319                           	callstack 121
  2320   0029A6                     
  2321                           ;mcc_generated_files/timer/src/tmr0.c: 52:     TMR0H = 0xF3;
  2322   0029A6  0EF3               	movlw	243
  2323   0029A8  0103               	movlb	3	; () banked
  2324   0029AA  6F19               	movwf	25,b	;volatile
  2325                           
  2326                           ;mcc_generated_files/timer/src/tmr0.c: 55:     TMR0L = 0x0;
  2327   0029AC  0E00               	movlw	0
  2328   0029AE  6F18               	movwf	24,b	;volatile
  2329                           
  2330                           ;mcc_generated_files/timer/src/tmr0.c: 58:     T0CON1 = 0x48;
  2331   0029B0  0E48               	movlw	72
  2332   0029B2  6F1B               	movwf	27,b	;volatile
  2333   0029B4                     
  2334                           ; BSR set to: 3
  2335                           ;mcc_generated_files/timer/src/tmr0.c: 62:     Timer0_OverflowCallbackRegister(Timer0_De
      +                          faultOverflowCallback);
  2336   0029B4  0E5A               	movlw	low _Timer0_DefaultOverflowCallback
  2337   0029B6  6E04               	movwf	Timer0_OverflowCallbackRegister@CallbackHandler^(0+1280),c
  2338   0029B8  0E2B               	movlw	high _Timer0_DefaultOverflowCallback
  2339   0029BA  6E05               	movwf	(Timer0_OverflowCallbackRegister@CallbackHandler+1)^(0+1280),c
  2340   0029BC  EC82  F015         	call	_Timer0_OverflowCallbackRegister	;wreg free
  2341   0029C0                     
  2342                           ;mcc_generated_files/timer/src/tmr0.c: 65:     PIR3bits.TMR0IF = 0;
  2343   0029C0  9EB6               	bcf	182,7,c	;volatile
  2344   0029C2                     
  2345                           ;mcc_generated_files/timer/src/tmr0.c: 68:     PIE3bits.TMR0IE = 1;
  2346   0029C2  8EAB               	bsf	171,7,c	;volatile
  2347   0029C4                     
  2348                           ;mcc_generated_files/timer/src/tmr0.c: 71:     T0CON0 = 0x80;
  2349   0029C4  0E80               	movlw	128
  2350   0029C6  0103               	movlb	3	; () banked
  2351   0029C8  6F1A               	movwf	26,b	;volatile
  2352   0029CA                     
  2353                           ; BSR set to: 3
  2354   0029CA  0012               	return		;funcret
  2355   0029CC                     __end_of_Timer0_Initialize:
  2356                           	callstack 0
  2357                           
  2358 ;; *************** function _TMR2_Initialize *****************
  2359 ;; Defined at:
  2360 ;;		line 57 in file "mcc_generated_files/timer/src/tmr2.c"
  2361 ;; Parameters:    Size  Location     Type
  2362 ;;		None
  2363 ;; Auto vars:     Size  Location     Type
  2364 ;;		None
  2365 ;; Return value:  Size  Location     Type
  2366 ;;                  1    wreg      void 
  2367 ;; Registers used:
  2368 ;;		wreg, status,2, status,0, cstack
  2369 ;; Tracked objects:
  2370 ;;		On entry : 0/0
  2371 ;;		On exit  : 0/0
  2372 ;;		Unchanged: 0/0
  2373 ;; Data sizes:     COMRAM   BANK5   BANK6   BANK7   BANK8   BANK9  BANK10  BANK11  BANK12  BANK13  BANK14  BANK15  BANK1
      +6  BANK17  BANK18  BANK19  BANK20
  2374 ;;      Params:         0       0       0       0       0       0       0       0       0       0       0       0       
      +0       0       0       0       0
  2375 ;;      Locals:         0       0       0       0       0       0       0       0       0       0       0       0       
      +0       0       0       0       0
  2376 ;;      Temps:          0       0       0       0       0       0       0       0       0       0       0       0       
      +0       0       0       0       0
  2377 ;;      Totals:         0       0       0       0       0       0       0       0       0       0       0       0       
      +0       0       0       0       0
  2378 ;;Total ram usage:        0 bytes
  2379 ;; Hardware stack levels used: 1
  2380 ;; Hardware stack levels required when called: 4
  2381 ;; This function calls:
  2382 ;;		_TMR2_OverflowCallbackRegister
  2383 ;; This function is called by:
  2384 ;;		_SYSTEM_Initialize
  2385 ;; This function uses a non-reentrant model
  2386 ;;
  2387                           
  2388                           	psect	text14
  2389   002928                     __ptext14:
  2390                           	callstack 0
  2391   002928                     _TMR2_Initialize:
  2392                           	callstack 121
  2393   002928                     
  2394                           ;mcc_generated_files/timer/src/tmr2.c: 61:     T2CLKCON = 0x1;
  2395   002928  0E01               	movlw	1
  2396   00292A  0103               	movlb	3	; () banked
  2397   00292C  6F20               	movwf	32,b	;volatile
  2398                           
  2399                           ;mcc_generated_files/timer/src/tmr2.c: 63:     T2HLT = 0x0;
  2400   00292E  0E00               	movlw	0
  2401   002930  6F1F               	movwf	31,b	;volatile
  2402                           
  2403                           ;mcc_generated_files/timer/src/tmr2.c: 65:     T2RST = 0x0;
  2404   002932  0E00               	movlw	0
  2405   002934  6F21               	movwf	33,b	;volatile
  2406   002936                     
  2407                           ; BSR set to: 3
  2408                           ;mcc_generated_files/timer/src/tmr2.c: 67:     T2PR = 0xFF;
  2409   002936  691D               	setf	29,b	;volatile
  2410                           
  2411                           ;mcc_generated_files/timer/src/tmr2.c: 69:     T2TMR = 0x0;
  2412   002938  0E00               	movlw	0
  2413   00293A  6F1C               	movwf	28,b	;volatile
  2414   00293C                     
  2415                           ; BSR set to: 3
  2416                           ;mcc_generated_files/timer/src/tmr2.c: 72:     TMR2_OverflowCallbackRegister(TMR2_Defaul
      +                          tOverflowCallback);
  2417   00293C  0E5C               	movlw	low _TMR2_DefaultOverflowCallback
  2418   00293E  6E04               	movwf	TMR2_OverflowCallbackRegister@InterruptHandler^(0+1280),c
  2419   002940  0E2B               	movlw	high _TMR2_DefaultOverflowCallback
  2420   002942  6E05               	movwf	(TMR2_OverflowCallbackRegister@InterruptHandler+1)^(0+1280),c
  2421   002944  EC5A  F015         	call	_TMR2_OverflowCallbackRegister	;wreg free
  2422   002948                     
  2423                           ;mcc_generated_files/timer/src/tmr2.c: 75:      PIR3bits.TMR2IF = 0;
  2424   002948  96B6               	bcf	182,3,c	;volatile
  2425   00294A                     
  2426                           ;mcc_generated_files/timer/src/tmr2.c: 77:     T2CON = 0x80;
  2427   00294A  0E80               	movlw	128
  2428   00294C  0103               	movlb	3	; () banked
  2429   00294E  6F1E               	movwf	30,b	;volatile
  2430   002950                     
  2431                           ; BSR set to: 3
  2432   002950  0012               	return		;funcret
  2433   002952                     __end_of_TMR2_Initialize:
  2434                           	callstack 0
  2435                           
  2436 ;; *************** function _TMR2_OverflowCallbackRegister *****************
  2437 ;; Defined at:
  2438 ;;		line 122 in file "mcc_generated_files/timer/src/tmr2.c"
  2439 ;; Parameters:    Size  Location     Type
  2440 ;;  InterruptHan    2    3[COMRAM] PTR FTN()void 
  2441 ;;		 -> Timer0_DefaultOverflowCallback(1), TMR2_DefaultOverflowCallback(1), Timer1_DefaultOverflowCallback(1), LAB_ISR(1
      +), 
  2442 ;; Auto vars:     Size  Location     Type
  2443 ;;		None
  2444 ;; Return value:  Size  Location     Type
  2445 ;;                  1    wreg      void 
  2446 ;; Registers used:
  2447 ;;		wreg, status,2, status,0
  2448 ;; Tracked objects:
  2449 ;;		On entry : 0/0
  2450 ;;		On exit  : 0/0
  2451 ;;		Unchanged: 0/0
  2452 ;; Data sizes:     COMRAM   BANK5   BANK6   BANK7   BANK8   BANK9  BANK10  BANK11  BANK12  BANK13  BANK14  BANK15  BANK1
      +6  BANK17  BANK18  BANK19  BANK20
  2453 ;;      Params:         2       0       0       0       0       0       0       0       0       0       0       0       
      +0       0       0       0       0
  2454 ;;      Locals:         0       0       0       0       0       0       0       0       0       0       0       0       
      +0       0       0       0       0
  2455 ;;      Temps:          0       0       0       0       0       0       0       0       0       0       0       0       
      +0       0       0       0       0
  2456 ;;      Totals:         2       0       0       0       0       0       0       0       0       0       0       0       
      +0       0       0       0       0
  2457 ;;Total ram usage:        2 bytes
  2458 ;; Hardware stack levels used: 1
  2459 ;; Hardware stack levels required when called: 3
  2460 ;; This function calls:
  2461 ;;		Nothing
  2462 ;; This function is called by:
  2463 ;;		_TMR2_Initialize
  2464 ;; This function uses a non-reentrant model
  2465 ;;
  2466                           
  2467                           	psect	text15
  2468   002AB4                     __ptext15:
  2469                           	callstack 0
  2470   002AB4                     _TMR2_OverflowCallbackRegister:
  2471                           	callstack 121
  2472   002AB4                     
  2473                           ;mcc_generated_files/timer/src/tmr2.c: 123:     TMR2_OverflowCallback = InterruptHandler
      +                          ;
  2474   002AB4  C504  F59A         	movff	TMR2_OverflowCallbackRegister@InterruptHandler,_TMR2_OverflowCallback
  2475   002AB8  C505  F59B         	movff	TMR2_OverflowCallbackRegister@InterruptHandler+1,_TMR2_OverflowCallback+1
  2476   002ABC  0012               	return		;funcret
  2477   002ABE                     __end_of_TMR2_OverflowCallbackRegister:
  2478                           	callstack 0
  2479                           
  2480 ;; *************** function _PWM1_16BIT_Initialize *****************
  2481 ;; Defined at:
  2482 ;;		line 50 in file "mcc_generated_files/pwm/src/pwm1_16bit.c"
  2483 ;; Parameters:    Size  Location     Type
  2484 ;;		None
  2485 ;; Auto vars:     Size  Location     Type
  2486 ;;		None
  2487 ;; Return value:  Size  Location     Type
  2488 ;;                  1    wreg      void 
  2489 ;; Registers used:
  2490 ;;		wreg, status,2, status,0, cstack
  2491 ;; Tracked objects:
  2492 ;;		On entry : 0/0
  2493 ;;		On exit  : 0/0
  2494 ;;		Unchanged: 0/0
  2495 ;; Data sizes:     COMRAM   BANK5   BANK6   BANK7   BANK8   BANK9  BANK10  BANK11  BANK12  BANK13  BANK14  BANK15  BANK1
      +6  BANK17  BANK18  BANK19  BANK20
  2496 ;;      Params:         0       0       0       0       0       0       0       0       0       0       0       0       
      +0       0       0       0       0
  2497 ;;      Locals:         0       0       0       0       0       0       0       0       0       0       0       0       
      +0       0       0       0       0
  2498 ;;      Temps:          0       0       0       0       0       0       0       0       0       0       0       0       
      +0       0       0       0       0
  2499 ;;      Totals:         0       0       0       0       0       0       0       0       0       0       0       0       
      +0       0       0       0       0
  2500 ;;Total ram usage:        0 bytes
  2501 ;; Hardware stack levels used: 1
  2502 ;; Hardware stack levels required when called: 4
  2503 ;; This function calls:
  2504 ;;		_PWM1_16BIT_Period_SetInterruptHandler
  2505 ;;		_PWM1_16BIT_Slice1Output1_SetInterruptHandler
  2506 ;;		_PWM1_16BIT_Slice1Output2_SetInterruptHandler
  2507 ;; This function is called by:
  2508 ;;		_SYSTEM_Initialize
  2509 ;; This function uses a non-reentrant model
  2510 ;;
  2511                           
  2512                           	psect	text16
  2513   002448                     __ptext16:
  2514                           	callstack 0
  2515   002448                     _PWM1_16BIT_Initialize:
  2516                           	callstack 121
  2517   002448                     
  2518                           ;mcc_generated_files/pwm/src/pwm1_16bit.c: 53:     PWM1ERS = 0x0;
  2519   002448  0E00               	movlw	0
  2520   00244A  6E60               	movwf	96,c	;volatile
  2521                           
  2522                           ;mcc_generated_files/pwm/src/pwm1_16bit.c: 56:     PWM1CLK = 0x2;
  2523   00244C  0E02               	movlw	2
  2524   00244E  6E61               	movwf	97,c	;volatile
  2525                           
  2526                           ;mcc_generated_files/pwm/src/pwm1_16bit.c: 59:     PWM1LDS = 0x0;
  2527   002450  0E00               	movlw	0
  2528   002452  6E62               	movwf	98,c	;volatile
  2529                           
  2530                           ;mcc_generated_files/pwm/src/pwm1_16bit.c: 62:     PWM1PRL = 0x87;
  2531   002454  0E87               	movlw	135
  2532   002456  6E63               	movwf	99,c	;volatile
  2533                           
  2534                           ;mcc_generated_files/pwm/src/pwm1_16bit.c: 65:     PWM1PRH = 0x13;
  2535   002458  0E13               	movlw	19
  2536   00245A  6E64               	movwf	100,c	;volatile
  2537                           
  2538                           ;mcc_generated_files/pwm/src/pwm1_16bit.c: 68:     PWM1CPRE = 0x0;
  2539   00245C  0E00               	movlw	0
  2540   00245E  6E65               	movwf	101,c	;volatile
  2541                           
  2542                           ;mcc_generated_files/pwm/src/pwm1_16bit.c: 71:     PWM1PIPOS = 0x0;
  2543   002460  0E00               	movlw	0
  2544   002462  6E66               	movwf	102,c	;volatile
  2545                           
  2546                           ;mcc_generated_files/pwm/src/pwm1_16bit.c: 74:     PWM1GIR = 0x0;
  2547   002464  0E00               	movlw	0
  2548   002466  6E67               	movwf	103,c	;volatile
  2549                           
  2550                           ;mcc_generated_files/pwm/src/pwm1_16bit.c: 77:     PWM1GIE = 0x0;
  2551   002468  0E00               	movlw	0
  2552   00246A  6E68               	movwf	104,c	;volatile
  2553                           
  2554                           ;mcc_generated_files/pwm/src/pwm1_16bit.c: 80:     PWM1S1CFG = 0x0;
  2555   00246C  0E00               	movlw	0
  2556   00246E  6E6A               	movwf	106,c	;volatile
  2557                           
  2558                           ;mcc_generated_files/pwm/src/pwm1_16bit.c: 83:     PWM1S1P1L = 0xA0;
  2559   002470  0EA0               	movlw	160
  2560   002472  6E6B               	movwf	107,c	;volatile
  2561                           
  2562                           ;mcc_generated_files/pwm/src/pwm1_16bit.c: 86:     PWM1S1P1H = 0xF;
  2563   002474  0E0F               	movlw	15
  2564   002476  6E6C               	movwf	108,c	;volatile
  2565                           
  2566                           ;mcc_generated_files/pwm/src/pwm1_16bit.c: 89:     PWM1S1P2L = 0xC4;
  2567   002478  0EC4               	movlw	196
  2568   00247A  6E6D               	movwf	109,c	;volatile
  2569                           
  2570                           ;mcc_generated_files/pwm/src/pwm1_16bit.c: 92:     PWM1S1P2H = 0x9;
  2571   00247C  0E09               	movlw	9
  2572   00247E  6E6E               	movwf	110,c	;volatile
  2573   002480                     
  2574                           ;mcc_generated_files/pwm/src/pwm1_16bit.c: 95:     PIR4bits.PWM1PIF = 0;
  2575   002480  9CB7               	bcf	183,6,c	;volatile
  2576   002482                     
  2577                           ;mcc_generated_files/pwm/src/pwm1_16bit.c: 98:     PIR4bits.PWM1IF = 0;
  2578   002482  9EB7               	bcf	183,7,c	;volatile
  2579   002484                     
  2580                           ;mcc_generated_files/pwm/src/pwm1_16bit.c: 101:     PWM1GIRbits.S1P1IF = 0;
  2581   002484  9067               	bcf	103,0,c	;volatile
  2582   002486                     
  2583                           ;mcc_generated_files/pwm/src/pwm1_16bit.c: 104:     PWM1GIRbits.S1P2IF = 0;
  2584   002486  9267               	bcf	103,1,c	;volatile
  2585   002488                     
  2586                           ;mcc_generated_files/pwm/src/pwm1_16bit.c: 107:     PIE4bits.PWM1IE = 0;
  2587   002488  9EAC               	bcf	172,7,c	;volatile
  2588   00248A                     
  2589                           ;mcc_generated_files/pwm/src/pwm1_16bit.c: 110:     PIE4bits.PWM1PIE = 0;
  2590   00248A  9CAC               	bcf	172,6,c	;volatile
  2591   00248C                     
  2592                           ;mcc_generated_files/pwm/src/pwm1_16bit.c: 113:     PWM1_16BIT_Slice1Output1_SetInterrup
      +                          tHandler(PWM1_16BIT_Slice1Output1_DefaultInterruptHandler);
  2593   00248C  0E00               	movlw	0
  2594   00248E  6E04               	movwf	PWM1_16BIT_Slice1Output1_SetInterruptHandler@InterruptHandler^(0+1280),c
  2595   002490  0E00               	movlw	0
  2596   002492  6E05               	movwf	(PWM1_16BIT_Slice1Output1_SetInterruptHandler@InterruptHandler+1)^(0+1280),c
  2597   002494  EC64  F015         	call	_PWM1_16BIT_Slice1Output1_SetInterruptHandler	;wreg free
  2598   002498                     
  2599                           ;mcc_generated_files/pwm/src/pwm1_16bit.c: 114:     PWM1_16BIT_Slice1Output2_SetInterrup
      +                          tHandler(PWM1_16BIT_Slice1Output2_DefaultInterruptHandler);
  2600   002498  0E00               	movlw	0
  2601   00249A  6E04               	movwf	PWM1_16BIT_Slice1Output2_SetInterruptHandler@InterruptHandler^(0+1280),c
  2602   00249C  0E00               	movlw	0
  2603   00249E  6E05               	movwf	(PWM1_16BIT_Slice1Output2_SetInterruptHandler@InterruptHandler+1)^(0+1280),c
  2604   0024A0  EC5F  F015         	call	_PWM1_16BIT_Slice1Output2_SetInterruptHandler	;wreg free
  2605   0024A4                     
  2606                           ;mcc_generated_files/pwm/src/pwm1_16bit.c: 115:     PWM1_16BIT_Period_SetInterruptHandle
      +                          r(PWM1_16BIT_Period_DefaultInterruptHandler);
  2607   0024A4  0E00               	movlw	0
  2608   0024A6  6E04               	movwf	PWM1_16BIT_Period_SetInterruptHandler@InterruptHandler^(0+1280),c
  2609   0024A8  0E00               	movlw	0
  2610   0024AA  6E05               	movwf	(PWM1_16BIT_Period_SetInterruptHandler@InterruptHandler+1)^(0+1280),c
  2611   0024AC  EC69  F015         	call	_PWM1_16BIT_Period_SetInterruptHandler	;wreg free
  2612   0024B0                     
  2613                           ;mcc_generated_files/pwm/src/pwm1_16bit.c: 118:     PWM1CON = 0x80;
  2614   0024B0  0E80               	movlw	128
  2615   0024B2  6E69               	movwf	105,c	;volatile
  2616   0024B4  0012               	return		;funcret
  2617   0024B6                     __end_of_PWM1_16BIT_Initialize:
  2618                           	callstack 0
  2619                           
  2620 ;; *************** function _PWM1_16BIT_Slice1Output2_SetInterruptHandler *****************
  2621 ;; Defined at:
  2622 ;;		line 184 in file "mcc_generated_files/pwm/src/pwm1_16bit.c"
  2623 ;; Parameters:    Size  Location     Type
  2624 ;;  InterruptHan    2    3[COMRAM] PTR FTN()void 
  2625 ;;		 -> PWM1_16BIT_Slice1Output2_DefaultInterruptHandler(1), 
  2626 ;; Auto vars:     Size  Location     Type
  2627 ;;		None
  2628 ;; Return value:  Size  Location     Type
  2629 ;;                  1    wreg      void 
  2630 ;; Registers used:
  2631 ;;		wreg, status,2, status,0
  2632 ;; Tracked objects:
  2633 ;;		On entry : 0/0
  2634 ;;		On exit  : 0/0
  2635 ;;		Unchanged: 0/0
  2636 ;; Data sizes:     COMRAM   BANK5   BANK6   BANK7   BANK8   BANK9  BANK10  BANK11  BANK12  BANK13  BANK14  BANK15  BANK1
      +6  BANK17  BANK18  BANK19  BANK20
  2637 ;;      Params:         2       0       0       0       0       0       0       0       0       0       0       0       
      +0       0       0       0       0
  2638 ;;      Locals:         0       0       0       0       0       0       0       0       0       0       0       0       
      +0       0       0       0       0
  2639 ;;      Temps:          0       0       0       0       0       0       0       0       0       0       0       0       
      +0       0       0       0       0
  2640 ;;      Totals:         2       0       0       0       0       0       0       0       0       0       0       0       
      +0       0       0       0       0
  2641 ;;Total ram usage:        2 bytes
  2642 ;; Hardware stack levels used: 1
  2643 ;; Hardware stack levels required when called: 3
  2644 ;; This function calls:
  2645 ;;		Nothing
  2646 ;; This function is called by:
  2647 ;;		_PWM1_16BIT_Initialize
  2648 ;; This function uses a non-reentrant model
  2649 ;;
  2650                           
  2651                           	psect	text17
  2652   002ABE                     __ptext17:
  2653                           	callstack 0
  2654   002ABE                     _PWM1_16BIT_Slice1Output2_SetInterruptHandler:
  2655                           	callstack 121
  2656   002ABE                     
  2657                           ;mcc_generated_files/pwm/src/pwm1_16bit.c: 184: void PWM1_16BIT_Slice1Output2_SetInterru
      +                          ptHandler(void (* InterruptHandler)(void));mcc_generated_files/pwm/src/pwm1_16bit.c: 185
      +                          : {;mcc_generated_files/pwm/src/pwm1_16bit.c: 186:     PWM1_16BIT_Slice1Output2_Interrup
      +                          tHandler = InterruptHandler;
  2658   002ABE  C504  F5A0         	movff	PWM1_16BIT_Slice1Output2_SetInterruptHandler@InterruptHandler,_PWM1_16BIT_Slice1O
      +                          utput2_InterruptHandler
  2659   002AC2  C505  F5A1         	movff	PWM1_16BIT_Slice1Output2_SetInterruptHandler@InterruptHandler+1,_PWM1_16BIT_Slice
      +                          1Output2_InterruptHandler+1
  2660   002AC6  0012               	return		;funcret
  2661   002AC8                     __end_of_PWM1_16BIT_Slice1Output2_SetInterruptHandler:
  2662                           	callstack 0
  2663                           
  2664 ;; *************** function _PWM1_16BIT_Slice1Output1_SetInterruptHandler *****************
  2665 ;; Defined at:
  2666 ;;		line 179 in file "mcc_generated_files/pwm/src/pwm1_16bit.c"
  2667 ;; Parameters:    Size  Location     Type
  2668 ;;  InterruptHan    2    3[COMRAM] PTR FTN()void 
  2669 ;;		 -> PWM1_16BIT_Slice1Output1_DefaultInterruptHandler(1), 
  2670 ;; Auto vars:     Size  Location     Type
  2671 ;;		None
  2672 ;; Return value:  Size  Location     Type
  2673 ;;                  1    wreg      void 
  2674 ;; Registers used:
  2675 ;;		wreg, status,2, status,0
  2676 ;; Tracked objects:
  2677 ;;		On entry : 0/0
  2678 ;;		On exit  : 0/0
  2679 ;;		Unchanged: 0/0
  2680 ;; Data sizes:     COMRAM   BANK5   BANK6   BANK7   BANK8   BANK9  BANK10  BANK11  BANK12  BANK13  BANK14  BANK15  BANK1
      +6  BANK17  BANK18  BANK19  BANK20
  2681 ;;      Params:         2       0       0       0       0       0       0       0       0       0       0       0       
      +0       0       0       0       0
  2682 ;;      Locals:         0       0       0       0       0       0       0       0       0       0       0       0       
      +0       0       0       0       0
  2683 ;;      Temps:          0       0       0       0       0       0       0       0       0       0       0       0       
      +0       0       0       0       0
  2684 ;;      Totals:         2       0       0       0       0       0       0       0       0       0       0       0       
      +0       0       0       0       0
  2685 ;;Total ram usage:        2 bytes
  2686 ;; Hardware stack levels used: 1
  2687 ;; Hardware stack levels required when called: 3
  2688 ;; This function calls:
  2689 ;;		Nothing
  2690 ;; This function is called by:
  2691 ;;		_PWM1_16BIT_Initialize
  2692 ;; This function uses a non-reentrant model
  2693 ;;
  2694                           
  2695                           	psect	text18
  2696   002AC8                     __ptext18:
  2697                           	callstack 0
  2698   002AC8                     _PWM1_16BIT_Slice1Output1_SetInterruptHandler:
  2699                           	callstack 121
  2700   002AC8                     
  2701                           ;mcc_generated_files/pwm/src/pwm1_16bit.c: 179: void PWM1_16BIT_Slice1Output1_SetInterru
      +                          ptHandler(void (* InterruptHandler)(void));mcc_generated_files/pwm/src/pwm1_16bit.c: 180
      +                          : {;mcc_generated_files/pwm/src/pwm1_16bit.c: 181:     PWM1_16BIT_Slice1Output1_Interrup
      +                          tHandler = InterruptHandler;
  2702   002AC8  C504  F5A2         	movff	PWM1_16BIT_Slice1Output1_SetInterruptHandler@InterruptHandler,_PWM1_16BIT_Slice1O
      +                          utput1_InterruptHandler
  2703   002ACC  C505  F5A3         	movff	PWM1_16BIT_Slice1Output1_SetInterruptHandler@InterruptHandler+1,_PWM1_16BIT_Slice
      +                          1Output1_InterruptHandler+1
  2704   002AD0  0012               	return		;funcret
  2705   002AD2                     __end_of_PWM1_16BIT_Slice1Output1_SetInterruptHandler:
  2706                           	callstack 0
  2707                           
  2708 ;; *************** function _PWM1_16BIT_Period_SetInterruptHandler *****************
  2709 ;; Defined at:
  2710 ;;		line 189 in file "mcc_generated_files/pwm/src/pwm1_16bit.c"
  2711 ;; Parameters:    Size  Location     Type
  2712 ;;  InterruptHan    2    3[COMRAM] PTR FTN()void 
  2713 ;;		 -> PWM1_16BIT_Period_DefaultInterruptHandler(1), 
  2714 ;; Auto vars:     Size  Location     Type
  2715 ;;		None
  2716 ;; Return value:  Size  Location     Type
  2717 ;;                  1    wreg      void 
  2718 ;; Registers used:
  2719 ;;		wreg, status,2, status,0
  2720 ;; Tracked objects:
  2721 ;;		On entry : 0/0
  2722 ;;		On exit  : 0/0
  2723 ;;		Unchanged: 0/0
  2724 ;; Data sizes:     COMRAM   BANK5   BANK6   BANK7   BANK8   BANK9  BANK10  BANK11  BANK12  BANK13  BANK14  BANK15  BANK1
      +6  BANK17  BANK18  BANK19  BANK20
  2725 ;;      Params:         2       0       0       0       0       0       0       0       0       0       0       0       
      +0       0       0       0       0
  2726 ;;      Locals:         0       0       0       0       0       0       0       0       0       0       0       0       
      +0       0       0       0       0
  2727 ;;      Temps:          0       0       0       0       0       0       0       0       0       0       0       0       
      +0       0       0       0       0
  2728 ;;      Totals:         2       0       0       0       0       0       0       0       0       0       0       0       
      +0       0       0       0       0
  2729 ;;Total ram usage:        2 bytes
  2730 ;; Hardware stack levels used: 1
  2731 ;; Hardware stack levels required when called: 3
  2732 ;; This function calls:
  2733 ;;		Nothing
  2734 ;; This function is called by:
  2735 ;;		_PWM1_16BIT_Initialize
  2736 ;; This function uses a non-reentrant model
  2737 ;;
  2738                           
  2739                           	psect	text19
  2740   002AD2                     __ptext19:
  2741                           	callstack 0
  2742   002AD2                     _PWM1_16BIT_Period_SetInterruptHandler:
  2743                           	callstack 121
  2744   002AD2                     
  2745                           ;mcc_generated_files/pwm/src/pwm1_16bit.c: 189: void PWM1_16BIT_Period_SetInterruptHandl
      +                          er(void (* InterruptHandler)(void));mcc_generated_files/pwm/src/pwm1_16bit.c: 190: {;mcc
      +                          _generated_files/pwm/src/pwm1_16bit.c: 191:     PWM1_16BIT_Period_InterruptHandler = Int
      +                          erruptHandler;
  2746   002AD2  C504  F59E         	movff	PWM1_16BIT_Period_SetInterruptHandler@InterruptHandler,_PWM1_16BIT_Period_Interru
      +                          ptHandler
  2747   002AD6  C505  F59F         	movff	PWM1_16BIT_Period_SetInterruptHandler@InterruptHandler+1,_PWM1_16BIT_Period_Inter
      +                          ruptHandler+1
  2748   002ADA  0012               	return		;funcret
  2749   002ADC                     __end_of_PWM1_16BIT_Period_SetInterruptHandler:
  2750                           	callstack 0
  2751                           
  2752 ;; *************** function _PIN_MANAGER_Initialize *****************
  2753 ;; Defined at:
  2754 ;;		line 38 in file "mcc_generated_files/system/src/pins.c"
  2755 ;; Parameters:    Size  Location     Type
  2756 ;;		None
  2757 ;; Auto vars:     Size  Location     Type
  2758 ;;		None
  2759 ;; Return value:  Size  Location     Type
  2760 ;;                  1    wreg      void 
  2761 ;; Registers used:
  2762 ;;		wreg, status,2
  2763 ;; Tracked objects:
  2764 ;;		On entry : 0/0
  2765 ;;		On exit  : 0/0
  2766 ;;		Unchanged: 0/0
  2767 ;; Data sizes:     COMRAM   BANK5   BANK6   BANK7   BANK8   BANK9  BANK10  BANK11  BANK12  BANK13  BANK14  BANK15  BANK1
      +6  BANK17  BANK18  BANK19  BANK20
  2768 ;;      Params:         0       0       0       0       0       0       0       0       0       0       0       0       
      +0       0       0       0       0
  2769 ;;      Locals:         0       0       0       0       0       0       0       0       0       0       0       0       
      +0       0       0       0       0
  2770 ;;      Temps:          0       0       0       0       0       0       0       0       0       0       0       0       
      +0       0       0       0       0
  2771 ;;      Totals:         0       0       0       0       0       0       0       0       0       0       0       0       
      +0       0       0       0       0
  2772 ;;Total ram usage:        0 bytes
  2773 ;; Hardware stack levels used: 1
  2774 ;; Hardware stack levels required when called: 3
  2775 ;; This function calls:
  2776 ;;		Nothing
  2777 ;; This function is called by:
  2778 ;;		_SYSTEM_Initialize
  2779 ;; This function uses a non-reentrant model
  2780 ;;
  2781                           
  2782                           	psect	text20
  2783   00223C                     __ptext20:
  2784                           	callstack 0
  2785   00223C                     _PIN_MANAGER_Initialize:
  2786                           	callstack 122
  2787   00223C                     
  2788                           ;mcc_generated_files/system/src/pins.c: 43:     LATA = 0x26;
  2789   00223C  0E26               	movlw	38
  2790   00223E  6EBE               	movwf	190,c	;volatile
  2791                           
  2792                           ;mcc_generated_files/system/src/pins.c: 44:     LATB = 0x0;
  2793   002240  0E00               	movlw	0
  2794   002242  6EBF               	movwf	191,c	;volatile
  2795                           
  2796                           ;mcc_generated_files/system/src/pins.c: 45:     LATC = 0x20;
  2797   002244  0E20               	movlw	32
  2798   002246  6EC0               	movwf	192,c	;volatile
  2799                           
  2800                           ;mcc_generated_files/system/src/pins.c: 50:     TRISA = 0x19;
  2801   002248  0E19               	movlw	25
  2802   00224A  6EC6               	movwf	198,c	;volatile
  2803                           
  2804                           ;mcc_generated_files/system/src/pins.c: 51:     TRISB = 0xF0;
  2805   00224C  0EF0               	movlw	240
  2806   00224E  6EC7               	movwf	199,c	;volatile
  2807                           
  2808                           ;mcc_generated_files/system/src/pins.c: 52:     TRISC = 0x9F;
  2809   002250  0E9F               	movlw	159
  2810   002252  6EC8               	movwf	200,c	;volatile
  2811                           
  2812                           ;mcc_generated_files/system/src/pins.c: 57:     ANSELA = 0x11;
  2813   002254  0E11               	movlw	17
  2814   002256  0104               	movlb	4	; () banked
  2815   002258  6F00               	movwf	0,b	;volatile
  2816                           
  2817                           ;mcc_generated_files/system/src/pins.c: 58:     ANSELB = 0xD0;
  2818   00225A  0ED0               	movlw	208
  2819   00225C  6F08               	movwf	8,b	;volatile
  2820                           
  2821                           ;mcc_generated_files/system/src/pins.c: 59:     ANSELC = 0x8F;
  2822   00225E  0E8F               	movlw	143
  2823   002260  6F10               	movwf	16,b	;volatile
  2824                           
  2825                           ;mcc_generated_files/system/src/pins.c: 64:     WPUA = 0x0;
  2826   002262  0E00               	movlw	0
  2827   002264  6F01               	movwf	1,b	;volatile
  2828                           
  2829                           ;mcc_generated_files/system/src/pins.c: 65:     WPUB = 0x0;
  2830   002266  0E00               	movlw	0
  2831   002268  6F09               	movwf	9,b	;volatile
  2832                           
  2833                           ;mcc_generated_files/system/src/pins.c: 66:     WPUC = 0x0;
  2834   00226A  0E00               	movlw	0
  2835   00226C  6F11               	movwf	17,b	;volatile
  2836                           
  2837                           ;mcc_generated_files/system/src/pins.c: 71:     ODCONA = 0x0;
  2838   00226E  0E00               	movlw	0
  2839   002270  6F02               	movwf	2,b	;volatile
  2840                           
  2841                           ;mcc_generated_files/system/src/pins.c: 72:     ODCONB = 0x0;
  2842   002272  0E00               	movlw	0
  2843   002274  6F0A               	movwf	10,b	;volatile
  2844                           
  2845                           ;mcc_generated_files/system/src/pins.c: 73:     ODCONC = 0x0;
  2846   002276  0E00               	movlw	0
  2847   002278  6F12               	movwf	18,b	;volatile
  2848                           
  2849                           ;mcc_generated_files/system/src/pins.c: 78:     SLRCONA = 0x37;
  2850   00227A  0E37               	movlw	55
  2851   00227C  6F03               	movwf	3,b	;volatile
  2852                           
  2853                           ;mcc_generated_files/system/src/pins.c: 79:     SLRCONB = 0xF0;
  2854   00227E  0EF0               	movlw	240
  2855   002280  6F0B               	movwf	11,b	;volatile
  2856   002282                     
  2857                           ; BSR set to: 4
  2858                           ;mcc_generated_files/system/src/pins.c: 80:     SLRCONC = 0xFF;
  2859   002282  6913               	setf	19,b	;volatile
  2860                           
  2861                           ;mcc_generated_files/system/src/pins.c: 85:     INLVLA = 0x3F;
  2862   002284  0E3F               	movlw	63
  2863   002286  6F04               	movwf	4,b	;volatile
  2864                           
  2865                           ;mcc_generated_files/system/src/pins.c: 86:     INLVLB = 0xF0;
  2866   002288  0EF0               	movlw	240
  2867   00228A  6F0C               	movwf	12,b	;volatile
  2868   00228C                     
  2869                           ; BSR set to: 4
  2870                           ;mcc_generated_files/system/src/pins.c: 87:     INLVLC = 0xFF;
  2871   00228C  6914               	setf	20,b	;volatile
  2872                           
  2873                           ;mcc_generated_files/system/src/pins.c: 92:     RB4I2C = 0x0;
  2874   00228E  0E00               	movlw	0
  2875   002290  0102               	movlb	2	; () banked
  2876   002292  6F87               	movwf	135,b	;volatile
  2877                           
  2878                           ;mcc_generated_files/system/src/pins.c: 93:     RB6I2C = 0x0;
  2879   002294  0E00               	movlw	0
  2880   002296  6F86               	movwf	134,b	;volatile
  2881                           
  2882                           ;mcc_generated_files/system/src/pins.c: 97:     U1RXPPS = 0xD;
  2883   002298  0E0D               	movlw	13
  2884   00229A  6F72               	movwf	114,b	;volatile
  2885                           
  2886                           ;mcc_generated_files/system/src/pins.c: 98:     RC6PPS = 0x10;
  2887   00229C  0E10               	movlw	16
  2888   00229E  6F17               	movwf	23,b	;volatile
  2889                           
  2890                           ;mcc_generated_files/system/src/pins.c: 103:     IOCAP = 0x0;
  2891   0022A0  0E00               	movlw	0
  2892   0022A2  0104               	movlb	4	; () banked
  2893   0022A4  6F05               	movwf	5,b	;volatile
  2894                           
  2895                           ;mcc_generated_files/system/src/pins.c: 104:     IOCAN = 0x0;
  2896   0022A6  0E00               	movlw	0
  2897   0022A8  6F06               	movwf	6,b	;volatile
  2898                           
  2899                           ;mcc_generated_files/system/src/pins.c: 105:     IOCAF = 0x0;
  2900   0022AA  0E00               	movlw	0
  2901   0022AC  6F07               	movwf	7,b	;volatile
  2902                           
  2903                           ;mcc_generated_files/system/src/pins.c: 106:     IOCBP = 0x0;
  2904   0022AE  0E00               	movlw	0
  2905   0022B0  6F0D               	movwf	13,b	;volatile
  2906                           
  2907                           ;mcc_generated_files/system/src/pins.c: 107:     IOCBN = 0x0;
  2908   0022B2  0E00               	movlw	0
  2909   0022B4  6F0E               	movwf	14,b	;volatile
  2910                           
  2911                           ;mcc_generated_files/system/src/pins.c: 108:     IOCBF = 0x0;
  2912   0022B6  0E00               	movlw	0
  2913   0022B8  6F0F               	movwf	15,b	;volatile
  2914                           
  2915                           ;mcc_generated_files/system/src/pins.c: 109:     IOCCP = 0x0;
  2916   0022BA  0E00               	movlw	0
  2917   0022BC  6F15               	movwf	21,b	;volatile
  2918                           
  2919                           ;mcc_generated_files/system/src/pins.c: 110:     IOCCN = 0x0;
  2920   0022BE  0E00               	movlw	0
  2921   0022C0  6F16               	movwf	22,b	;volatile
  2922                           
  2923                           ;mcc_generated_files/system/src/pins.c: 111:     IOCCF = 0x0;
  2924   0022C2  0E00               	movlw	0
  2925   0022C4  6F17               	movwf	23,b	;volatile
  2926   0022C6                     
  2927                           ; BSR set to: 4
  2928   0022C6  0012               	return		;funcret
  2929   0022C8                     __end_of_PIN_MANAGER_Initialize:
  2930                           	callstack 0
  2931                           
  2932 ;; *************** function _NVM_Initialize *****************
  2933 ;; Defined at:
  2934 ;;		line 43 in file "mcc_generated_files/nvm/src/nvm.c"
  2935 ;; Parameters:    Size  Location     Type
  2936 ;;		None
  2937 ;; Auto vars:     Size  Location     Type
  2938 ;;		None
  2939 ;; Return value:  Size  Location     Type
  2940 ;;                  1    wreg      void 
  2941 ;; Registers used:
  2942 ;;		cstack
  2943 ;; Tracked objects:
  2944 ;;		On entry : 0/0
  2945 ;;		On exit  : 0/0
  2946 ;;		Unchanged: 0/0
  2947 ;; Data sizes:     COMRAM   BANK5   BANK6   BANK7   BANK8   BANK9  BANK10  BANK11  BANK12  BANK13  BANK14  BANK15  BANK1
      +6  BANK17  BANK18  BANK19  BANK20
  2948 ;;      Params:         0       0       0       0       0       0       0       0       0       0       0       0       
      +0       0       0       0       0
  2949 ;;      Locals:         0       0       0       0       0       0       0       0       0       0       0       0       
      +0       0       0       0       0
  2950 ;;      Temps:          0       0       0       0       0       0       0       0       0       0       0       0       
      +0       0       0       0       0
  2951 ;;      Totals:         0       0       0       0       0       0       0       0       0       0       0       0       
      +0       0       0       0       0
  2952 ;;Total ram usage:        0 bytes
  2953 ;; Hardware stack levels used: 1
  2954 ;; Hardware stack levels required when called: 4
  2955 ;; This function calls:
  2956 ;;		_NVM_StatusClear
  2957 ;; This function is called by:
  2958 ;;		_SYSTEM_Initialize
  2959 ;; This function uses a non-reentrant model
  2960 ;;
  2961                           
  2962                           	psect	text21
  2963   002B2A                     __ptext21:
  2964                           	callstack 0
  2965   002B2A                     _NVM_Initialize:
  2966                           	callstack 121
  2967   002B2A                     
  2968                           ;mcc_generated_files/nvm/src/nvm.c: 45:     NVM_StatusClear();
  2969   002B2A  EC98  F015         	call	_NVM_StatusClear	;wreg free
  2970   002B2E  0012               	return		;funcret
  2971   002B30                     __end_of_NVM_Initialize:
  2972                           	callstack 0
  2973                           
  2974 ;; *************** function _NVM_StatusClear *****************
  2975 ;; Defined at:
  2976 ;;		line 65 in file "mcc_generated_files/nvm/src/nvm.c"
  2977 ;; Parameters:    Size  Location     Type
  2978 ;;		None
  2979 ;; Auto vars:     Size  Location     Type
  2980 ;;		None
  2981 ;; Return value:  Size  Location     Type
  2982 ;;                  1    wreg      void 
  2983 ;; Registers used:
  2984 ;;		None
  2985 ;; Tracked objects:
  2986 ;;		On entry : 0/0
  2987 ;;		On exit  : 0/0
  2988 ;;		Unchanged: 0/0
  2989 ;; Data sizes:     COMRAM   BANK5   BANK6   BANK7   BANK8   BANK9  BANK10  BANK11  BANK12  BANK13  BANK14  BANK15  BANK1
      +6  BANK17  BANK18  BANK19  BANK20
  2990 ;;      Params:         0       0       0       0       0       0       0       0       0       0       0       0       
      +0       0       0       0       0
  2991 ;;      Locals:         0       0       0       0       0       0       0       0       0       0       0       0       
      +0       0       0       0       0
  2992 ;;      Temps:          0       0       0       0       0       0       0       0       0       0       0       0       
      +0       0       0       0       0
  2993 ;;      Totals:         0       0       0       0       0       0       0       0       0       0       0       0       
      +0       0       0       0       0
  2994 ;;Total ram usage:        0 bytes
  2995 ;; Hardware stack levels used: 1
  2996 ;; Hardware stack levels required when called: 3
  2997 ;; This function calls:
  2998 ;;		Nothing
  2999 ;; This function is called by:
  3000 ;;		_NVM_Initialize
  3001 ;; This function uses a non-reentrant model
  3002 ;;
  3003                           
  3004                           	psect	text22
  3005   002B30                     __ptext22:
  3006                           	callstack 0
  3007   002B30                     _NVM_StatusClear:
  3008                           	callstack 121
  3009   002B30                     
  3010                           ;mcc_generated_files/nvm/src/nvm.c: 67:     NVMCON1bits.WRERR = 0;
  3011   002B30  0100               	movlb	0	; () banked
  3012   002B32  9F41               	bcf	65,7,b	;volsfr
  3013   002B34                     
  3014                           ; BSR set to: 0
  3015   002B34  0012               	return		;funcret
  3016   002B36                     __end_of_NVM_StatusClear:
  3017                           	callstack 0
  3018                           
  3019 ;; *************** function _INTERRUPT_Initialize *****************
  3020 ;; Defined at:
  3021 ;;		line 42 in file "mcc_generated_files/system/src/interrupt.c"
  3022 ;; Parameters:    Size  Location     Type
  3023 ;;		None
  3024 ;; Auto vars:     Size  Location     Type
  3025 ;;		None
  3026 ;; Return value:  Size  Location     Type
  3027 ;;                  1    wreg      void 
  3028 ;; Registers used:
  3029 ;;		wreg, status,2, status,0, cstack
  3030 ;; Tracked objects:
  3031 ;;		On entry : 0/0
  3032 ;;		On exit  : 0/0
  3033 ;;		Unchanged: 0/0
  3034 ;; Data sizes:     COMRAM   BANK5   BANK6   BANK7   BANK8   BANK9  BANK10  BANK11  BANK12  BANK13  BANK14  BANK15  BANK1
      +6  BANK17  BANK18  BANK19  BANK20
  3035 ;;      Params:         0       0       0       0       0       0       0       0       0       0       0       0       
      +0       0       0       0       0
  3036 ;;      Locals:         0       0       0       0       0       0       0       0       0       0       0       0       
      +0       0       0       0       0
  3037 ;;      Temps:          0       0       0       0       0       0       0       0       0       0       0       0       
      +0       0       0       0       0
  3038 ;;      Totals:         0       0       0       0       0       0       0       0       0       0       0       0       
      +0       0       0       0       0
  3039 ;;Total ram usage:        0 bytes
  3040 ;; Hardware stack levels used: 1
  3041 ;; Hardware stack levels required when called: 4
  3042 ;; This function calls:
  3043 ;;		_INT0_SetInterruptHandler
  3044 ;;		_INT1_SetInterruptHandler
  3045 ;;		_INT2_SetInterruptHandler
  3046 ;; This function is called by:
  3047 ;;		_SYSTEM_Initialize
  3048 ;; This function uses a non-reentrant model
  3049 ;;
  3050                           
  3051                           	psect	text23
  3052   002812                     __ptext23:
  3053                           	callstack 0
  3054   002812                     _INTERRUPT_Initialize:
  3055                           	callstack 121
  3056   002812                     
  3057                           ;mcc_generated_files/system/src/interrupt.c: 45:     INTCON0bits.IPEN = 0;
  3058   002812  9AD6               	bcf	214,5,c	;volatile
  3059                           
  3060                           ;mcc_generated_files/system/src/interrupt.c: 49:     (PIR1bits.INT0IF = 0);
  3061   002814  90B4               	bcf	180,0,c	;volatile
  3062                           
  3063                           ;mcc_generated_files/system/src/interrupt.c: 50:     (INTCON0bits.INT0EDG = 1);
  3064   002816  80D6               	bsf	214,0,c	;volatile
  3065   002818                     
  3066                           ;mcc_generated_files/system/src/interrupt.c: 52:     INT0_SetInterruptHandler(INT0_Defau
      +                          ltInterruptHandler);
  3067   002818  0E00               	movlw	0
  3068   00281A  6E04               	movwf	INT0_SetInterruptHandler@InterruptHandler^(0+1280),c
  3069   00281C  0E00               	movlw	0
  3070   00281E  6E05               	movwf	(INT0_SetInterruptHandler@InterruptHandler+1)^(0+1280),c
  3071   002820  EC78  F015         	call	_INT0_SetInterruptHandler	;wreg free
  3072   002824                     
  3073                           ;mcc_generated_files/system/src/interrupt.c: 57:     (PIR6bits.INT1IF = 0);
  3074   002824  90B9               	bcf	185,0,c	;volatile
  3075   002826                     
  3076                           ;mcc_generated_files/system/src/interrupt.c: 58:     (INTCON0bits.INT1EDG = 1);
  3077   002826  82D6               	bsf	214,1,c	;volatile
  3078                           
  3079                           ;mcc_generated_files/system/src/interrupt.c: 60:     INT1_SetInterruptHandler(INT1_Defau
      +                          ltInterruptHandler);
  3080   002828  0E00               	movlw	0
  3081   00282A  6E04               	movwf	INT1_SetInterruptHandler@InterruptHandler^(0+1280),c
  3082   00282C  0E00               	movlw	0
  3083   00282E  6E05               	movwf	(INT1_SetInterruptHandler@InterruptHandler+1)^(0+1280),c
  3084   002830  EC73  F015         	call	_INT1_SetInterruptHandler	;wreg free
  3085   002834                     
  3086                           ;mcc_generated_files/system/src/interrupt.c: 65:     (PIR10bits.INT2IF = 0);
  3087   002834  90BD               	bcf	189,0,c	;volatile
  3088   002836                     
  3089                           ;mcc_generated_files/system/src/interrupt.c: 66:     (INTCON0bits.INT2EDG = 1);
  3090   002836  84D6               	bsf	214,2,c	;volatile
  3091                           
  3092                           ;mcc_generated_files/system/src/interrupt.c: 68:     INT2_SetInterruptHandler(INT2_Defau
      +                          ltInterruptHandler);
  3093   002838  0E00               	movlw	0
  3094   00283A  6E04               	movwf	INT2_SetInterruptHandler@InterruptHandler^(0+1280),c
  3095   00283C  0E00               	movlw	0
  3096   00283E  6E05               	movwf	(INT2_SetInterruptHandler@InterruptHandler+1)^(0+1280),c
  3097   002840  EC6E  F015         	call	_INT2_SetInterruptHandler	;wreg free
  3098   002844  0012               	return		;funcret
  3099   002846                     __end_of_INTERRUPT_Initialize:
  3100                           	callstack 0
  3101                           
  3102 ;; *************** function _INT2_SetInterruptHandler *****************
  3103 ;; Defined at:
  3104 ;;		line 167 in file "mcc_generated_files/system/src/interrupt.c"
  3105 ;; Parameters:    Size  Location     Type
  3106 ;;  InterruptHan    2    3[COMRAM] PTR FTN()void 
  3107 ;;		 -> INT2_DefaultInterruptHandler(1), 
  3108 ;; Auto vars:     Size  Location     Type
  3109 ;;		None
  3110 ;; Return value:  Size  Location     Type
  3111 ;;                  1    wreg      void 
  3112 ;; Registers used:
  3113 ;;		wreg, status,2, status,0
  3114 ;; Tracked objects:
  3115 ;;		On entry : 0/0
  3116 ;;		On exit  : 0/0
  3117 ;;		Unchanged: 0/0
  3118 ;; Data sizes:     COMRAM   BANK5   BANK6   BANK7   BANK8   BANK9  BANK10  BANK11  BANK12  BANK13  BANK14  BANK15  BANK1
      +6  BANK17  BANK18  BANK19  BANK20
  3119 ;;      Params:         2       0       0       0       0       0       0       0       0       0       0       0       
      +0       0       0       0       0
  3120 ;;      Locals:         0       0       0       0       0       0       0       0       0       0       0       0       
      +0       0       0       0       0
  3121 ;;      Temps:          0       0       0       0       0       0       0       0       0       0       0       0       
      +0       0       0       0       0
  3122 ;;      Totals:         2       0       0       0       0       0       0       0       0       0       0       0       
      +0       0       0       0       0
  3123 ;;Total ram usage:        2 bytes
  3124 ;; Hardware stack levels used: 1
  3125 ;; Hardware stack levels required when called: 3
  3126 ;; This function calls:
  3127 ;;		Nothing
  3128 ;; This function is called by:
  3129 ;;		_INTERRUPT_Initialize
  3130 ;; This function uses a non-reentrant model
  3131 ;;
  3132                           
  3133                           	psect	text24
  3134   002ADC                     __ptext24:
  3135                           	callstack 0
  3136   002ADC                     _INT2_SetInterruptHandler:
  3137                           	callstack 121
  3138   002ADC                     
  3139                           ;mcc_generated_files/system/src/interrupt.c: 168:     INT2_InterruptHandler = InterruptH
      +                          andler;
  3140   002ADC  C504  F570         	movff	INT2_SetInterruptHandler@InterruptHandler,_INT2_InterruptHandler
  3141   002AE0  C505  F571         	movff	INT2_SetInterruptHandler@InterruptHandler+1,_INT2_InterruptHandler+1
  3142   002AE4  0012               	return		;funcret
  3143   002AE6                     __end_of_INT2_SetInterruptHandler:
  3144                           	callstack 0
  3145                           
  3146 ;; *************** function _INT1_SetInterruptHandler *****************
  3147 ;; Defined at:
  3148 ;;		line 141 in file "mcc_generated_files/system/src/interrupt.c"
  3149 ;; Parameters:    Size  Location     Type
  3150 ;;  InterruptHan    2    3[COMRAM] PTR FTN()void 
  3151 ;;		 -> INT1_DefaultInterruptHandler(1), 
  3152 ;; Auto vars:     Size  Location     Type
  3153 ;;		None
  3154 ;; Return value:  Size  Location     Type
  3155 ;;                  1    wreg      void 
  3156 ;; Registers used:
  3157 ;;		wreg, status,2, status,0
  3158 ;; Tracked objects:
  3159 ;;		On entry : 0/0
  3160 ;;		On exit  : 0/0
  3161 ;;		Unchanged: 0/0
  3162 ;; Data sizes:     COMRAM   BANK5   BANK6   BANK7   BANK8   BANK9  BANK10  BANK11  BANK12  BANK13  BANK14  BANK15  BANK1
      +6  BANK17  BANK18  BANK19  BANK20
  3163 ;;      Params:         2       0       0       0       0       0       0       0       0       0       0       0       
      +0       0       0       0       0
  3164 ;;      Locals:         0       0       0       0       0       0       0       0       0       0       0       0       
      +0       0       0       0       0
  3165 ;;      Temps:          0       0       0       0       0       0       0       0       0       0       0       0       
      +0       0       0       0       0
  3166 ;;      Totals:         2       0       0       0       0       0       0       0       0       0       0       0       
      +0       0       0       0       0
  3167 ;;Total ram usage:        2 bytes
  3168 ;; Hardware stack levels used: 1
  3169 ;; Hardware stack levels required when called: 3
  3170 ;; This function calls:
  3171 ;;		Nothing
  3172 ;; This function is called by:
  3173 ;;		_INTERRUPT_Initialize
  3174 ;; This function uses a non-reentrant model
  3175 ;;
  3176                           
  3177                           	psect	text25
  3178   002AE6                     __ptext25:
  3179                           	callstack 0
  3180   002AE6                     _INT1_SetInterruptHandler:
  3181                           	callstack 121
  3182   002AE6                     
  3183                           ;mcc_generated_files/system/src/interrupt.c: 142:     INT1_InterruptHandler = InterruptH
      +                          andler;
  3184   002AE6  C504  F572         	movff	INT1_SetInterruptHandler@InterruptHandler,_INT1_InterruptHandler
  3185   002AEA  C505  F573         	movff	INT1_SetInterruptHandler@InterruptHandler+1,_INT1_InterruptHandler+1
  3186   002AEE  0012               	return		;funcret
  3187   002AF0                     __end_of_INT1_SetInterruptHandler:
  3188                           	callstack 0
  3189                           
  3190 ;; *************** function _INT0_SetInterruptHandler *****************
  3191 ;; Defined at:
  3192 ;;		line 115 in file "mcc_generated_files/system/src/interrupt.c"
  3193 ;; Parameters:    Size  Location     Type
  3194 ;;  InterruptHan    2    3[COMRAM] PTR FTN()void 
  3195 ;;		 -> INT0_DefaultInterruptHandler(1), 
  3196 ;; Auto vars:     Size  Location     Type
  3197 ;;		None
  3198 ;; Return value:  Size  Location     Type
  3199 ;;                  1    wreg      void 
  3200 ;; Registers used:
  3201 ;;		wreg, status,2, status,0
  3202 ;; Tracked objects:
  3203 ;;		On entry : 0/0
  3204 ;;		On exit  : 0/0
  3205 ;;		Unchanged: 0/0
  3206 ;; Data sizes:     COMRAM   BANK5   BANK6   BANK7   BANK8   BANK9  BANK10  BANK11  BANK12  BANK13  BANK14  BANK15  BANK1
      +6  BANK17  BANK18  BANK19  BANK20
  3207 ;;      Params:         2       0       0       0       0       0       0       0       0       0       0       0       
      +0       0       0       0       0
  3208 ;;      Locals:         0       0       0       0       0       0       0       0       0       0       0       0       
      +0       0       0       0       0
  3209 ;;      Temps:          0       0       0       0       0       0       0       0       0       0       0       0       
      +0       0       0       0       0
  3210 ;;      Totals:         2       0       0       0       0       0       0       0       0       0       0       0       
      +0       0       0       0       0
  3211 ;;Total ram usage:        2 bytes
  3212 ;; Hardware stack levels used: 1
  3213 ;; Hardware stack levels required when called: 3
  3214 ;; This function calls:
  3215 ;;		Nothing
  3216 ;; This function is called by:
  3217 ;;		_INTERRUPT_Initialize
  3218 ;; This function uses a non-reentrant model
  3219 ;;
  3220                           
  3221                           	psect	text26
  3222   002AF0                     __ptext26:
  3223                           	callstack 0
  3224   002AF0                     _INT0_SetInterruptHandler:
  3225                           	callstack 121
  3226   002AF0                     
  3227                           ;mcc_generated_files/system/src/interrupt.c: 116:     INT0_InterruptHandler = InterruptH
      +                          andler;
  3228   002AF0  C504  F574         	movff	INT0_SetInterruptHandler@InterruptHandler,_INT0_InterruptHandler
  3229   002AF4  C505  F575         	movff	INT0_SetInterruptHandler@InterruptHandler+1,_INT0_InterruptHandler+1
  3230   002AF8  0012               	return		;funcret
  3231   002AFA                     __end_of_INT0_SetInterruptHandler:
  3232                           	callstack 0
  3233                           
  3234 ;; *************** function _CLOCK_Initialize *****************
  3235 ;; Defined at:
  3236 ;;		line 37 in file "mcc_generated_files/system/src/clock.c"
  3237 ;; Parameters:    Size  Location     Type
  3238 ;;		None
  3239 ;; Auto vars:     Size  Location     Type
  3240 ;;		None
  3241 ;; Return value:  Size  Location     Type
  3242 ;;                  1    wreg      void 
  3243 ;; Registers used:
  3244 ;;		wreg, status,2
  3245 ;; Tracked objects:
  3246 ;;		On entry : 0/0
  3247 ;;		On exit  : 0/0
  3248 ;;		Unchanged: 0/0
  3249 ;; Data sizes:     COMRAM   BANK5   BANK6   BANK7   BANK8   BANK9  BANK10  BANK11  BANK12  BANK13  BANK14  BANK15  BANK1
      +6  BANK17  BANK18  BANK19  BANK20
  3250 ;;      Params:         0       0       0       0       0       0       0       0       0       0       0       0       
      +0       0       0       0       0
  3251 ;;      Locals:         0       0       0       0       0       0       0       0       0       0       0       0       
      +0       0       0       0       0
  3252 ;;      Temps:          0       0       0       0       0       0       0       0       0       0       0       0       
      +0       0       0       0       0
  3253 ;;      Totals:         0       0       0       0       0       0       0       0       0       0       0       0       
      +0       0       0       0       0
  3254 ;;Total ram usage:        0 bytes
  3255 ;; Hardware stack levels used: 1
  3256 ;; Hardware stack levels required when called: 3
  3257 ;; This function calls:
  3258 ;;		Nothing
  3259 ;; This function is called by:
  3260 ;;		_SYSTEM_Initialize
  3261 ;; This function uses a non-reentrant model
  3262 ;;
  3263                           
  3264                           	psect	text27
  3265   002A80                     __ptext27:
  3266                           	callstack 0
  3267   002A80                     _CLOCK_Initialize:
  3268                           	callstack 122
  3269   002A80                     
  3270                           ;mcc_generated_files/system/src/clock.c: 41:     OSCCON1 = 0x62;
  3271   002A80  0E62               	movlw	98
  3272   002A82  0100               	movlb	0	; () banked
  3273   002A84  6FAD               	movwf	173,b	;volatile
  3274                           
  3275                           ;mcc_generated_files/system/src/clock.c: 43:     OSCCON3 = 0x0;
  3276   002A86  0E00               	movlw	0
  3277   002A88  6FAF               	movwf	175,b	;volatile
  3278                           
  3279                           ;mcc_generated_files/system/src/clock.c: 45:     OSCEN = 0x0;
  3280   002A8A  0E00               	movlw	0
  3281   002A8C  6FB3               	movwf	179,b	;volatile
  3282                           
  3283                           ;mcc_generated_files/system/src/clock.c: 47:     OSCFRQ = 0x1;
  3284   002A8E  0E01               	movlw	1
  3285   002A90  6FB1               	movwf	177,b	;volatile
  3286                           
  3287                           ;mcc_generated_files/system/src/clock.c: 49:     OSCTUNE = 0x0;
  3288   002A92  0E00               	movlw	0
  3289   002A94  6FB0               	movwf	176,b	;volatile
  3290                           
  3291                           ;mcc_generated_files/system/src/clock.c: 51:     ACTCON = 0x0;
  3292   002A96  0E00               	movlw	0
  3293   002A98  6FAC               	movwf	172,b	;volatile
  3294   002A9A                     
  3295                           ; BSR set to: 0
  3296   002A9A  0012               	return		;funcret
  3297   002A9C                     __end_of_CLOCK_Initialize:
  3298                           	callstack 0
  3299                           
  3300 ;; *************** function _ADCC_Initialize *****************
  3301 ;; Defined at:
  3302 ;;		line 45 in file "mcc_generated_files/adc/src/adcc.c"
  3303 ;; Parameters:    Size  Location     Type
  3304 ;;		None
  3305 ;; Auto vars:     Size  Location     Type
  3306 ;;		None
  3307 ;; Return value:  Size  Location     Type
  3308 ;;                  1    wreg      void 
  3309 ;; Registers used:
  3310 ;;		wreg, status,2
  3311 ;; Tracked objects:
  3312 ;;		On entry : 0/0
  3313 ;;		On exit  : 0/0
  3314 ;;		Unchanged: 0/0
  3315 ;; Data sizes:     COMRAM   BANK5   BANK6   BANK7   BANK8   BANK9  BANK10  BANK11  BANK12  BANK13  BANK14  BANK15  BANK1
      +6  BANK17  BANK18  BANK19  BANK20
  3316 ;;      Params:         0       0       0       0       0       0       0       0       0       0       0       0       
      +0       0       0       0       0
  3317 ;;      Locals:         0       0       0       0       0       0       0       0       0       0       0       0       
      +0       0       0       0       0
  3318 ;;      Temps:          0       0       0       0       0       0       0       0       0       0       0       0       
      +0       0       0       0       0
  3319 ;;      Totals:         0       0       0       0       0       0       0       0       0       0       0       0       
      +0       0       0       0       0
  3320 ;;Total ram usage:        0 bytes
  3321 ;; Hardware stack levels used: 1
  3322 ;; Hardware stack levels required when called: 3
  3323 ;; This function calls:
  3324 ;;		Nothing
  3325 ;; This function is called by:
  3326 ;;		_SYSTEM_Initialize
  3327 ;; This function uses a non-reentrant model
  3328 ;;
  3329                           
  3330                           	psect	text28
  3331   0024B6                     __ptext28:
  3332                           	callstack 0
  3333   0024B6                     _ADCC_Initialize:
  3334                           	callstack 122
  3335   0024B6                     
  3336                           ;mcc_generated_files/adc/src/adcc.c: 49:     ADLTHL = 0x0;
  3337   0024B6  0E00               	movlw	0
  3338   0024B8  0103               	movlb	3	; () banked
  3339   0024BA  6FD9               	movwf	217,b	;volatile
  3340                           
  3341                           ;mcc_generated_files/adc/src/adcc.c: 51:     ADLTHH = 0x0;
  3342   0024BC  0E00               	movlw	0
  3343   0024BE  6FDA               	movwf	218,b	;volatile
  3344                           
  3345                           ;mcc_generated_files/adc/src/adcc.c: 53:     ADUTHL = 0x0;
  3346   0024C0  0E00               	movlw	0
  3347   0024C2  6FDB               	movwf	219,b	;volatile
  3348                           
  3349                           ;mcc_generated_files/adc/src/adcc.c: 55:     ADUTHH = 0x0;
  3350   0024C4  0E00               	movlw	0
  3351   0024C6  6FDC               	movwf	220,b	;volatile
  3352                           
  3353                           ;mcc_generated_files/adc/src/adcc.c: 57:     ADSTPTL = 0x0;
  3354   0024C8  0E00               	movlw	0
  3355   0024CA  6FDF               	movwf	223,b	;volatile
  3356                           
  3357                           ;mcc_generated_files/adc/src/adcc.c: 59:     ADSTPTH = 0x0;
  3358   0024CC  0E00               	movlw	0
  3359   0024CE  6FE0               	movwf	224,b	;volatile
  3360                           
  3361                           ;mcc_generated_files/adc/src/adcc.c: 61:     ADACCU = 0x0;
  3362   0024D0  0E00               	movlw	0
  3363   0024D2  6FE5               	movwf	229,b	;volatile
  3364                           
  3365                           ;mcc_generated_files/adc/src/adcc.c: 63:     ADRPT = 0x0;
  3366   0024D4  0E00               	movlw	0
  3367   0024D6  6FE7               	movwf	231,b	;volatile
  3368                           
  3369                           ;mcc_generated_files/adc/src/adcc.c: 65:     ADPCH = 0x0;
  3370   0024D8  0E00               	movlw	0
  3371   0024DA  6FEC               	movwf	236,b	;volatile
  3372                           
  3373                           ;mcc_generated_files/adc/src/adcc.c: 67:     ADACQL = 0x1;
  3374   0024DC  0E01               	movlw	1
  3375   0024DE  6FEE               	movwf	238,b	;volatile
  3376                           
  3377                           ;mcc_generated_files/adc/src/adcc.c: 69:     ADACQH = 0x0;
  3378   0024E0  0E00               	movlw	0
  3379   0024E2  6FEF               	movwf	239,b	;volatile
  3380                           
  3381                           ;mcc_generated_files/adc/src/adcc.c: 71:     ADCAP = 0x0;
  3382   0024E4  0E00               	movlw	0
  3383   0024E6  6FF0               	movwf	240,b	;volatile
  3384                           
  3385                           ;mcc_generated_files/adc/src/adcc.c: 73:     ADPREL = 0x0;
  3386   0024E8  0E00               	movlw	0
  3387   0024EA  6FF1               	movwf	241,b	;volatile
  3388                           
  3389                           ;mcc_generated_files/adc/src/adcc.c: 75:     ADPREH = 0x0;
  3390   0024EC  0E00               	movlw	0
  3391   0024EE  6FF2               	movwf	242,b	;volatile
  3392                           
  3393                           ;mcc_generated_files/adc/src/adcc.c: 77:     ADCON1 = 0x0;
  3394   0024F0  0E00               	movlw	0
  3395   0024F2  6FF4               	movwf	244,b	;volatile
  3396                           
  3397                           ;mcc_generated_files/adc/src/adcc.c: 79:     ADCON2 = 0x10;
  3398   0024F4  0E10               	movlw	16
  3399   0024F6  6FF5               	movwf	245,b	;volatile
  3400                           
  3401                           ;mcc_generated_files/adc/src/adcc.c: 81:     ADCON3 = 0x0;
  3402   0024F8  0E00               	movlw	0
  3403   0024FA  6FF6               	movwf	246,b	;volatile
  3404                           
  3405                           ;mcc_generated_files/adc/src/adcc.c: 83:     ADSTAT = 0x0;
  3406   0024FC  0E00               	movlw	0
  3407   0024FE  6FF7               	movwf	247,b	;volatile
  3408                           
  3409                           ;mcc_generated_files/adc/src/adcc.c: 85:     ADREF = 0x0;
  3410   002500  0E00               	movlw	0
  3411   002502  6FF8               	movwf	248,b	;volatile
  3412                           
  3413                           ;mcc_generated_files/adc/src/adcc.c: 87:     ADACT = 0x0;
  3414   002504  0E00               	movlw	0
  3415   002506  6FF9               	movwf	249,b	;volatile
  3416                           
  3417                           ;mcc_generated_files/adc/src/adcc.c: 89:     ADCLK = 0x0;
  3418   002508  0E00               	movlw	0
  3419   00250A  6FFA               	movwf	250,b	;volatile
  3420                           
  3421                           ;mcc_generated_files/adc/src/adcc.c: 91:     ADCON0 = 0x80;
  3422   00250C  0E80               	movlw	128
  3423   00250E  6FF3               	movwf	243,b	;volatile
  3424   002510                     
  3425                           ; BSR set to: 3
  3426                           ;mcc_generated_files/adc/src/adcc.c: 94:     PIR1bits.ADIF = 0;
  3427   002510  94B4               	bcf	180,2,c	;volatile
  3428   002512                     
  3429                           ; BSR set to: 3
  3430                           ;mcc_generated_files/adc/src/adcc.c: 97:     PIR2bits.ADTIF = 0;
  3431   002512  90B5               	bcf	181,0,c	;volatile
  3432   002514                     
  3433                           ; BSR set to: 3
  3434   002514  0012               	return		;funcret
  3435   002516                     __end_of_ADCC_Initialize:
  3436                           	callstack 0
  3437                           
  3438 ;; *************** function _Rotate *****************
  3439 ;; Defined at:
  3440 ;;		line 54 in file "Labs/Lab03_Rotate/Rotate.c"
  3441 ;; Parameters:    Size  Location     Type
  3442 ;;		None
  3443 ;; Auto vars:     Size  Location     Type
  3444 ;;		None
  3445 ;; Return value:  Size  Location     Type
  3446 ;;                  1    wreg      void 
  3447 ;; Registers used:
  3448 ;;		wreg, status,2, status,0
  3449 ;; Tracked objects:
  3450 ;;		On entry : 0/0
  3451 ;;		On exit  : 0/0
  3452 ;;		Unchanged: 0/0
  3453 ;; Data sizes:     COMRAM   BANK5   BANK6   BANK7   BANK8   BANK9  BANK10  BANK11  BANK12  BANK13  BANK14  BANK15  BANK1
      +6  BANK17  BANK18  BANK19  BANK20
  3454 ;;      Params:         0       0       0       0       0       0       0       0       0       0       0       0       
      +0       0       0       0       0
  3455 ;;      Locals:         0       0       0       0       0       0       0       0       0       0       0       0       
      +0       0       0       0       0
  3456 ;;      Temps:          1       0       0       0       0       0       0       0       0       0       0       0       
      +0       0       0       0       0
  3457 ;;      Totals:         1       0       0       0       0       0       0       0       0       0       0       0       
      +0       0       0       0       0
  3458 ;;Total ram usage:        1 bytes
  3459 ;; Hardware stack levels used: 1
  3460 ;; Hardware stack levels required when called: 3
  3461 ;; This function calls:
  3462 ;;		Nothing
  3463 ;; This function is called by:
  3464 ;;		_main
  3465 ;; This function uses a non-reentrant model
  3466 ;;
  3467                           
  3468                           	psect	text29
  3469   001D2A                     __ptext29:
  3470                           	callstack 0
  3471   001D2A                     _Rotate:
  3472                           	callstack 123
  3473   001D2A                     
  3474                           ;Labs/Lab03_Rotate/Rotate.c: 55:     if (labState == 0) {
  3475   001D2A  505D               	movf	_labState^(0+1280),w,c
  3476   001D2C  A4D8               	btfss	status,2,c
  3477   001D2E  EF9B  F00E         	goto	u541
  3478   001D32  EF9D  F00E         	goto	u540
  3479   001D36                     u541:
  3480   001D36  EFA5  F00E         	goto	l2748
  3481   001D3A                     u540:
  3482   001D3A  0E00               	movlw	0
  3483   001D3C  6EBE               	movwf	190,c	;volatile
  3484   001D3E  9AC0               	bcf	192,5,c	;volatile
  3485   001D40  8ABE               	bsf	190,5,c	;volatile
  3486   001D42                     
  3487                           ;Labs/Lab03_Rotate/Rotate.c: 60:         rotateReg = 1;
  3488   001D42  0E01               	movlw	1
  3489   001D44  6E5A               	movwf	_rotateReg^(0+1280),c
  3490                           
  3491                           ;Labs/Lab03_Rotate/Rotate.c: 62:         labState = 1;
  3492   001D46  0E01               	movlw	1
  3493   001D48  6E5D               	movwf	_labState^(0+1280),c
  3494   001D4A                     l2748:
  3495                           
  3496                           ;Labs/Lab03_Rotate/Rotate.c: 65:     if (labState == 1) {
  3497   001D4A  045D               	decf	_labState^(0+1280),w,c
  3498   001D4C  A4D8               	btfss	status,2,c
  3499   001D4E  EFAB  F00E         	goto	u551
  3500   001D52  EFAD  F00E         	goto	u550
  3501   001D56                     u551:
  3502   001D56  EFF8  F00E         	goto	l90
  3503   001D5A                     u550:
  3504   001D5A                     
  3505                           ;Labs/Lab03_Rotate/Rotate.c: 66:         _delay((unsigned long)((500)*(500000/4000.0)));
  3506   001D5A  0E52               	movlw	82
  3507   001D5C  6E04               	movwf	??_Rotate^(0+1280),c
  3508   001D5E  0E2A               	movlw	42
  3509   001D60                     u2527:
  3510   001D60  2EE8               	decfsz	wreg,f,c
  3511   001D62  D7FE               	bra	u2527
  3512   001D64  2E04               	decfsz	??_Rotate^(0+1280),f,c
  3513   001D66  D7FC               	bra	u2527
  3514   001D68                     
  3515                           ;Labs/Lab03_Rotate/Rotate.c: 68:         rotateReg <<= 1;
  3516   001D68  90D8               	bcf	status,0,c
  3517   001D6A  365A               	rlcf	_rotateReg^(0+1280),f,c
  3518   001D6C                     
  3519                           ;Labs/Lab03_Rotate/Rotate.c: 71:         if (rotateReg == 16)
  3520   001D6C  0E10               	movlw	16
  3521   001D6E  185A               	xorwf	_rotateReg^(0+1280),w,c
  3522   001D70  A4D8               	btfss	status,2,c
  3523   001D72  EFBD  F00E         	goto	u561
  3524   001D76  EFBF  F00E         	goto	u560
  3525   001D7A                     u561:
  3526   001D7A  EFC1  F00E         	goto	l2758
  3527   001D7E                     u560:
  3528   001D7E                     
  3529                           ;Labs/Lab03_Rotate/Rotate.c: 72:             rotateReg = 1;
  3530   001D7E  0E01               	movlw	1
  3531   001D80  6E5A               	movwf	_rotateReg^(0+1280),c
  3532   001D82                     l2758:
  3533                           
  3534                           ;Labs/Lab03_Rotate/Rotate.c: 76:         LATAbits.LATA5 = rotateReg & 1;
  3535   001D82  C55A  F504         	movff	_rotateReg,??_Rotate
  3536   001D86  0E01               	movlw	1
  3537   001D88  1604               	andwf	??_Rotate^(0+1280),f,c
  3538   001D8A  3A04               	swapf	??_Rotate^(0+1280),f,c
  3539   001D8C  4604               	rlncf	??_Rotate^(0+1280),f,c
  3540   001D8E  50BE               	movf	190,w,c	;volatile
  3541   001D90  1804               	xorwf	??_Rotate^(0+1280),w,c
  3542   001D92  0BDF               	andlw	-33
  3543   001D94  1804               	xorwf	??_Rotate^(0+1280),w,c
  3544   001D96  6EBE               	movwf	190,c	;volatile
  3545   001D98                     
  3546                           ;Labs/Lab03_Rotate/Rotate.c: 77:         LATAbits.LATA1 = (rotateReg & 2) >> 1;
  3547   001D98  C55A  F504         	movff	_rotateReg,??_Rotate
  3548   001D9C  90D8               	bcf	status,0,c
  3549   001D9E  3204               	rrcf	??_Rotate^(0+1280),f,c
  3550   001DA0  0E01               	movlw	1
  3551   001DA2  1604               	andwf	??_Rotate^(0+1280),f,c
  3552   001DA4  4604               	rlncf	??_Rotate^(0+1280),f,c
  3553   001DA6  50BE               	movf	190,w,c	;volatile
  3554   001DA8  1804               	xorwf	??_Rotate^(0+1280),w,c
  3555   001DAA  0BFD               	andlw	-3
  3556   001DAC  1804               	xorwf	??_Rotate^(0+1280),w,c
  3557   001DAE  6EBE               	movwf	190,c	;volatile
  3558   001DB0                     
  3559                           ;Labs/Lab03_Rotate/Rotate.c: 78:         LATAbits.LATA2 = (rotateReg & 4) >> 2;
  3560   001DB0  C55A  F504         	movff	_rotateReg,??_Rotate
  3561   001DB4  90D8               	bcf	status,0,c
  3562   001DB6  3204               	rrcf	??_Rotate^(0+1280),f,c
  3563   001DB8  90D8               	bcf	status,0,c
  3564   001DBA  3204               	rrcf	??_Rotate^(0+1280),f,c
  3565   001DBC  0E01               	movlw	1
  3566   001DBE  1604               	andwf	??_Rotate^(0+1280),f,c
  3567   001DC0  4604               	rlncf	??_Rotate^(0+1280),f,c
  3568   001DC2  4604               	rlncf	??_Rotate^(0+1280),f,c
  3569   001DC4  50BE               	movf	190,w,c	;volatile
  3570   001DC6  1804               	xorwf	??_Rotate^(0+1280),w,c
  3571   001DC8  0BFB               	andlw	-5
  3572   001DCA  1804               	xorwf	??_Rotate^(0+1280),w,c
  3573   001DCC  6EBE               	movwf	190,c	;volatile
  3574   001DCE                     
  3575                           ;Labs/Lab03_Rotate/Rotate.c: 79:         LATCbits.LATC5 = (rotateReg & 8) >> 3;
  3576   001DCE  C55A  F504         	movff	_rotateReg,??_Rotate
  3577   001DD2  90D8               	bcf	status,0,c
  3578   001DD4  3204               	rrcf	??_Rotate^(0+1280),f,c
  3579   001DD6  90D8               	bcf	status,0,c
  3580   001DD8  3204               	rrcf	??_Rotate^(0+1280),f,c
  3581   001DDA  90D8               	bcf	status,0,c
  3582   001DDC  3204               	rrcf	??_Rotate^(0+1280),f,c
  3583   001DDE  0E01               	movlw	1
  3584   001DE0  1604               	andwf	??_Rotate^(0+1280),f,c
  3585   001DE2  3A04               	swapf	??_Rotate^(0+1280),f,c
  3586   001DE4  4604               	rlncf	??_Rotate^(0+1280),f,c
  3587   001DE6  50C0               	movf	192,w,c	;volatile
  3588   001DE8  1804               	xorwf	??_Rotate^(0+1280),w,c
  3589   001DEA  0BDF               	andlw	-33
  3590   001DEC  1804               	xorwf	??_Rotate^(0+1280),w,c
  3591   001DEE  6EC0               	movwf	192,c	;volatile
  3592   001DF0                     l90:
  3593                           
  3594                           ;Labs/Lab03_Rotate/Rotate.c: 82:     if (switchEvent) {
  3595   001DF0  505E               	movf	_switchEvent^(0+1280),w,c
  3596   001DF2  B4D8               	btfsc	status,2,c
  3597   001DF4  EFFE  F00E         	goto	u571
  3598   001DF8  EF00  F00F         	goto	u570
  3599   001DFC                     u571:
  3600   001DFC  EF02  F00F         	goto	l93
  3601   001E00                     u570:
  3602   001E00                     
  3603                           ;Labs/Lab03_Rotate/Rotate.c: 83:         labState = 0;
  3604   001E00  0E00               	movlw	0
  3605   001E02  6E5D               	movwf	_labState^(0+1280),c
  3606   001E04                     l93:
  3607   001E04  0012               	return		;funcret
  3608   001E06                     __end_of_Rotate:
  3609                           	callstack 0
  3610                           
  3611 ;; *************** function _PWM *****************
  3612 ;; Defined at:
  3613 ;;		line 58 in file "Labs/Lab06_PulseWidthModulation/PWM.c"
  3614 ;; Parameters:    Size  Location     Type
  3615 ;;		None
  3616 ;; Auto vars:     Size  Location     Type
  3617 ;;		None
  3618 ;; Return value:  Size  Location     Type
  3619 ;;                  1    wreg      void 
  3620 ;; Registers used:
  3621 ;;		wreg, fsr1l, fsr1h, fsr2l, fsr2h, status,2, status,0, tblptrl, tblptrh, tblptru, cstack
  3622 ;; Tracked objects:
  3623 ;;		On entry : 0/0
  3624 ;;		On exit  : 0/0
  3625 ;;		Unchanged: 0/0
  3626 ;; Data sizes:     COMRAM   BANK5   BANK6   BANK7   BANK8   BANK9  BANK10  BANK11  BANK12  BANK13  BANK14  BANK15  BANK1
      +6  BANK17  BANK18  BANK19  BANK20
  3627 ;;      Params:         0       0       0       0       0       0       0       0       0       0       0       0       
      +0       0       0       0       0
  3628 ;;      Locals:         0       0       0       0       0       0       0       0       0       0       0       0       
      +0       0       0       0       0
  3629 ;;      Temps:          0       0       0       0       0       0       0       0       0       0       0       0       
      +0       0       0       0       0
  3630 ;;      Totals:         0       0       0       0       0       0       0       0       0       0       0       0       
      +0       0       0       0       0
  3631 ;;Total ram usage:        0 bytes
  3632 ;; Hardware stack levels used: 1
  3633 ;; Hardware stack levels required when called: 12
  3634 ;; This function calls:
  3635 ;;		_ADCC_GetSingleConversion
  3636 ;;		_PWM1_16BIT_Disable
  3637 ;;		_PWM1_16BIT_Enable
  3638 ;;		_PWM1_16BIT_LoadBufferRegisters
  3639 ;;		_PWM1_16BIT_SetSlice1Output1DutyCycleRegister
  3640 ;;		_TMR2_Start
  3641 ;;		_TMR2_Stop
  3642 ;;		_printf
  3643 ;; This function is called by:
  3644 ;;		_main
  3645 ;; This function uses a non-reentrant model
  3646 ;;
  3647                           
  3648                           	psect	text30
  3649   0021AE                     __ptext30:
  3650                           	callstack 0
  3651   0021AE                     _PWM:
  3652                           	callstack 114
  3653   0021AE                     
  3654                           ;Labs/Lab06_PulseWidthModulation/PWM.c: 59:     if (labState == 0) {
  3655   0021AE  505D               	movf	_labState^(0+1280),w,c
  3656   0021B0  A4D8               	btfss	status,2,c
  3657   0021B2  EFDD  F010         	goto	u1991
  3658   0021B6  EFDF  F010         	goto	u1990
  3659   0021BA                     u1991:
  3660   0021BA  EFEB  F010         	goto	l4062
  3661   0021BE                     u1990:
  3662   0021BE  0E00               	movlw	0
  3663   0021C0  6EBE               	movwf	190,c	;volatile
  3664   0021C2  9AC0               	bcf	192,5,c	;volatile
  3665   0021C4                     
  3666                           ;Labs/Lab06_PulseWidthModulation/PWM.c: 61:         PWM1_16BIT_Enable();
  3667   0021C4  ECA9  F015         	call	_PWM1_16BIT_Enable	;wreg free
  3668   0021C8  0E0A               	movlw	10
  3669   0021CA  0102               	movlb	2	; () banked
  3670   0021CC  6F16               	movwf	22,b	;volatile
  3671   0021CE                     
  3672                           ; BSR set to: 2
  3673                           ;Labs/Lab06_PulseWidthModulation/PWM.c: 64:         TMR2_Start();
  3674   0021CE  EC9E  F015         	call	_TMR2_Start	;wreg free
  3675   0021D2                     
  3676                           ;Labs/Lab06_PulseWidthModulation/PWM.c: 66:         labState = 1;
  3677   0021D2  0E01               	movlw	1
  3678   0021D4  6E5D               	movwf	_labState^(0+1280),c
  3679   0021D6                     l4062:
  3680                           
  3681                           ;Labs/Lab06_PulseWidthModulation/PWM.c: 69:     if (labState == 1) {
  3682   0021D6  045D               	decf	_labState^(0+1280),w,c
  3683   0021D8  A4D8               	btfss	status,2,c
  3684   0021DA  EFF1  F010         	goto	u2001
  3685   0021DE  EFF3  F010         	goto	u2000
  3686   0021E2                     u2001:
  3687   0021E2  EF0C  F011         	goto	l4072
  3688   0021E6                     u2000:
  3689   0021E6                     
  3690                           ;Labs/Lab06_PulseWidthModulation/PWM.c: 70:         adcResult = ADCC_GetSingleConversion
      +                          (POT_CHANNEL);
  3691   0021E6  0E10               	movlw	16
  3692   0021E8  EC52  F014         	call	_ADCC_GetSingleConversion
  3693   0021EC  C504  F576         	movff	?_ADCC_GetSingleConversion,_adcResult@PWM$F336
  3694   0021F0  C505  F577         	movff	?_ADCC_GetSingleConversion+1,_adcResult@PWM$F336+1
  3695   0021F4                     
  3696                           ;Labs/Lab06_PulseWidthModulation/PWM.c: 72:         printf("ADC Result: %d\n\r", adcResu
      +                          lt);
  3697   0021F4  0E55               	movlw	low STR_1
  3698   0021F6  6E44               	movwf	printf@fmt^(0+1280),c
  3699   0021F8  0E16               	movlw	high STR_1
  3700   0021FA  6E45               	movwf	(printf@fmt+1)^(0+1280),c
  3701   0021FC  C576  F546         	movff	_adcResult@PWM$F336,?_printf+2
  3702   002200  C577  F547         	movff	_adcResult@PWM$F336+1,?_printf+3
  3703   002204  ECE6  F014         	call	_printf	;wreg free
  3704   002208                     
  3705                           ;Labs/Lab06_PulseWidthModulation/PWM.c: 73:         PWM1_16BIT_SetSlice1Output1DutyCycle
      +                          Register(adcResult);
  3706   002208  C576  F504         	movff	_adcResult@PWM$F336,PWM1_16BIT_SetSlice1Output1DutyCycleRegister@registerValue
  3707   00220C  C577  F505         	movff	_adcResult@PWM$F336+1,PWM1_16BIT_SetSlice1Output1DutyCycleRegister@registerValue+
      +                          1
  3708   002210  EC7D  F015         	call	_PWM1_16BIT_SetSlice1Output1DutyCycleRegister	;wreg free
  3709   002214                     
  3710                           ;Labs/Lab06_PulseWidthModulation/PWM.c: 74:         PWM1_16BIT_LoadBufferRegisters();
  3711   002214  ECA7  F015         	call	_PWM1_16BIT_LoadBufferRegisters	;wreg free
  3712   002218                     l4072:
  3713                           
  3714                           ;Labs/Lab06_PulseWidthModulation/PWM.c: 77:     if (switchEvent) {
  3715   002218  505E               	movf	_switchEvent^(0+1280),w,c
  3716   00221A  B4D8               	btfsc	status,2,c
  3717   00221C  EF12  F011         	goto	u2011
  3718   002220  EF14  F011         	goto	u2010
  3719   002224                     u2011:
  3720   002224  EF1D  F011         	goto	l205
  3721   002228                     u2010:
  3722   002228                     
  3723                           ;Labs/Lab06_PulseWidthModulation/PWM.c: 78:         TMR2_Stop();
  3724   002228  EC9B  F015         	call	_TMR2_Stop	;wreg free
  3725   00222C                     
  3726                           ;Labs/Lab06_PulseWidthModulation/PWM.c: 79:         PWM1_16BIT_Disable();
  3727   00222C  ECAB  F015         	call	_PWM1_16BIT_Disable	;wreg free
  3728   002230  0E00               	movlw	0
  3729   002232  0102               	movlb	2	; () banked
  3730   002234  6F16               	movwf	22,b	;volatile
  3731   002236                     
  3732                           ; BSR set to: 2
  3733                           ;Labs/Lab06_PulseWidthModulation/PWM.c: 81:         labState = 0;
  3734   002236  0E00               	movlw	0
  3735   002238  6E5D               	movwf	_labState^(0+1280),c
  3736   00223A                     l205:
  3737   00223A  0012               	return		;funcret
  3738   00223C                     __end_of_PWM:
  3739                           	callstack 0
  3740                           
  3741 ;; *************** function _TMR2_Stop *****************
  3742 ;; Defined at:
  3743 ;;		line 98 in file "mcc_generated_files/timer/src/tmr2.c"
  3744 ;; Parameters:    Size  Location     Type
  3745 ;;		None
  3746 ;; Auto vars:     Size  Location     Type
  3747 ;;		None
  3748 ;; Return value:  Size  Location     Type
  3749 ;;                  1    wreg      void 
  3750 ;; Registers used:
  3751 ;;		None
  3752 ;; Tracked objects:
  3753 ;;		On entry : 0/0
  3754 ;;		On exit  : 0/0
  3755 ;;		Unchanged: 0/0
  3756 ;; Data sizes:     COMRAM   BANK5   BANK6   BANK7   BANK8   BANK9  BANK10  BANK11  BANK12  BANK13  BANK14  BANK15  BANK1
      +6  BANK17  BANK18  BANK19  BANK20
  3757 ;;      Params:         0       0       0       0       0       0       0       0       0       0       0       0       
      +0       0       0       0       0
  3758 ;;      Locals:         0       0       0       0       0       0       0       0       0       0       0       0       
      +0       0       0       0       0
  3759 ;;      Temps:          0       0       0       0       0       0       0       0       0       0       0       0       
      +0       0       0       0       0
  3760 ;;      Totals:         0       0       0       0       0       0       0       0       0       0       0       0       
      +0       0       0       0       0
  3761 ;;Total ram usage:        0 bytes
  3762 ;; Hardware stack levels used: 1
  3763 ;; Hardware stack levels required when called: 3
  3764 ;; This function calls:
  3765 ;;		Nothing
  3766 ;; This function is called by:
  3767 ;;		_PWM
  3768 ;; This function uses a non-reentrant model
  3769 ;;
  3770                           
  3771                           	psect	text31
  3772   002B36                     __ptext31:
  3773                           	callstack 0
  3774   002B36                     _TMR2_Stop:
  3775                           	callstack 122
  3776   002B36                     
  3777                           ;mcc_generated_files/timer/src/tmr2.c: 101:     T2CONbits.TMR2ON = 0;
  3778   002B36  0103               	movlb	3	; () banked
  3779   002B38  9F1E               	bcf	30,7,b	;volatile
  3780   002B3A                     
  3781                           ; BSR set to: 3
  3782   002B3A  0012               	return		;funcret
  3783   002B3C                     __end_of_TMR2_Stop:
  3784                           	callstack 0
  3785                           
  3786 ;; *************** function _TMR2_Start *****************
  3787 ;; Defined at:
  3788 ;;		line 92 in file "mcc_generated_files/timer/src/tmr2.c"
  3789 ;; Parameters:    Size  Location     Type
  3790 ;;		None
  3791 ;; Auto vars:     Size  Location     Type
  3792 ;;		None
  3793 ;; Return value:  Size  Location     Type
  3794 ;;                  1    wreg      void 
  3795 ;; Registers used:
  3796 ;;		None
  3797 ;; Tracked objects:
  3798 ;;		On entry : 0/0
  3799 ;;		On exit  : 0/0
  3800 ;;		Unchanged: 0/0
  3801 ;; Data sizes:     COMRAM   BANK5   BANK6   BANK7   BANK8   BANK9  BANK10  BANK11  BANK12  BANK13  BANK14  BANK15  BANK1
      +6  BANK17  BANK18  BANK19  BANK20
  3802 ;;      Params:         0       0       0       0       0       0       0       0       0       0       0       0       
      +0       0       0       0       0
  3803 ;;      Locals:         0       0       0       0       0       0       0       0       0       0       0       0       
      +0       0       0       0       0
  3804 ;;      Temps:          0       0       0       0       0       0       0       0       0       0       0       0       
      +0       0       0       0       0
  3805 ;;      Totals:         0       0       0       0       0       0       0       0       0       0       0       0       
      +0       0       0       0       0
  3806 ;;Total ram usage:        0 bytes
  3807 ;; Hardware stack levels used: 1
  3808 ;; Hardware stack levels required when called: 3
  3809 ;; This function calls:
  3810 ;;		Nothing
  3811 ;; This function is called by:
  3812 ;;		_PWM
  3813 ;; This function uses a non-reentrant model
  3814 ;;
  3815                           
  3816                           	psect	text32
  3817   002B3C                     __ptext32:
  3818                           	callstack 0
  3819   002B3C                     _TMR2_Start:
  3820                           	callstack 122
  3821   002B3C                     
  3822                           ;mcc_generated_files/timer/src/tmr2.c: 95:     T2CONbits.TMR2ON = 1;
  3823   002B3C  0103               	movlb	3	; () banked
  3824   002B3E  8F1E               	bsf	30,7,b	;volatile
  3825   002B40                     
  3826                           ; BSR set to: 3
  3827   002B40  0012               	return		;funcret
  3828   002B42                     __end_of_TMR2_Start:
  3829                           	callstack 0
  3830                           
  3831 ;; *************** function _PWM1_16BIT_SetSlice1Output1DutyCycleRegister *****************
  3832 ;; Defined at:
  3833 ;;		line 137 in file "mcc_generated_files/pwm/src/pwm1_16bit.c"
  3834 ;; Parameters:    Size  Location     Type
  3835 ;;  registerValu    2    3[COMRAM] unsigned short 
  3836 ;; Auto vars:     Size  Location     Type
  3837 ;;		None
  3838 ;; Return value:  Size  Location     Type
  3839 ;;                  1    wreg      void 
  3840 ;; Registers used:
  3841 ;;		wreg, status,2
  3842 ;; Tracked objects:
  3843 ;;		On entry : 0/0
  3844 ;;		On exit  : 0/0
  3845 ;;		Unchanged: 0/0
  3846 ;; Data sizes:     COMRAM   BANK5   BANK6   BANK7   BANK8   BANK9  BANK10  BANK11  BANK12  BANK13  BANK14  BANK15  BANK1
      +6  BANK17  BANK18  BANK19  BANK20
  3847 ;;      Params:         2       0       0       0       0       0       0       0       0       0       0       0       
      +0       0       0       0       0
  3848 ;;      Locals:         0       0       0       0       0       0       0       0       0       0       0       0       
      +0       0       0       0       0
  3849 ;;      Temps:          0       0       0       0       0       0       0       0       0       0       0       0       
      +0       0       0       0       0
  3850 ;;      Totals:         2       0       0       0       0       0       0       0       0       0       0       0       
      +0       0       0       0       0
  3851 ;;Total ram usage:        2 bytes
  3852 ;; Hardware stack levels used: 1
  3853 ;; Hardware stack levels required when called: 3
  3854 ;; This function calls:
  3855 ;;		Nothing
  3856 ;; This function is called by:
  3857 ;;		_PWM
  3858 ;; This function uses a non-reentrant model
  3859 ;;
  3860                           
  3861                           	psect	text33
  3862   002AFA                     __ptext33:
  3863                           	callstack 0
  3864   002AFA                     _PWM1_16BIT_SetSlice1Output1DutyCycleRegister:
  3865                           	callstack 122
  3866   002AFA                     
  3867                           ;mcc_generated_files/pwm/src/pwm1_16bit.c: 137: void PWM1_16BIT_SetSlice1Output1DutyCycl
      +                          eRegister(uint16_t registerValue);mcc_generated_files/pwm/src/pwm1_16bit.c: 138: {;mcc_g
      +                          enerated_files/pwm/src/pwm1_16bit.c: 139:     PWM1S1P1L = (uint8_t)(registerValue);
  3868   002AFA  C504  F46B         	movff	PWM1_16BIT_SetSlice1Output1DutyCycleRegister@registerValue,1131	;volatile
  3869   002AFE                     
  3870                           ;mcc_generated_files/pwm/src/pwm1_16bit.c: 140:     PWM1S1P1H = (uint8_t)(registerValue 
      +                          >> 8);
  3871   002AFE  5005               	movf	(PWM1_16BIT_SetSlice1Output1DutyCycleRegister@registerValue+1)^(0+1280),w,c
  3872   002B00  6E6C               	movwf	108,c	;volatile
  3873   002B02  0012               	return		;funcret
  3874   002B04                     __end_of_PWM1_16BIT_SetSlice1Output1DutyCycleRegister:
  3875                           	callstack 0
  3876                           
  3877 ;; *************** function _PWM1_16BIT_LoadBufferRegisters *****************
  3878 ;; Defined at:
  3879 ;;		line 149 in file "mcc_generated_files/pwm/src/pwm1_16bit.c"
  3880 ;; Parameters:    Size  Location     Type
  3881 ;;		None
  3882 ;; Auto vars:     Size  Location     Type
  3883 ;;		None
  3884 ;; Return value:  Size  Location     Type
  3885 ;;                  1    wreg      void 
  3886 ;; Registers used:
  3887 ;;		None
  3888 ;; Tracked objects:
  3889 ;;		On entry : 0/0
  3890 ;;		On exit  : 0/0
  3891 ;;		Unchanged: 0/0
  3892 ;; Data sizes:     COMRAM   BANK5   BANK6   BANK7   BANK8   BANK9  BANK10  BANK11  BANK12  BANK13  BANK14  BANK15  BANK1
      +6  BANK17  BANK18  BANK19  BANK20
  3893 ;;      Params:         0       0       0       0       0       0       0       0       0       0       0       0       
      +0       0       0       0       0
  3894 ;;      Locals:         0       0       0       0       0       0       0       0       0       0       0       0       
      +0       0       0       0       0
  3895 ;;      Temps:          0       0       0       0       0       0       0       0       0       0       0       0       
      +0       0       0       0       0
  3896 ;;      Totals:         0       0       0       0       0       0       0       0       0       0       0       0       
      +0       0       0       0       0
  3897 ;;Total ram usage:        0 bytes
  3898 ;; Hardware stack levels used: 1
  3899 ;; Hardware stack levels required when called: 3
  3900 ;; This function calls:
  3901 ;;		Nothing
  3902 ;; This function is called by:
  3903 ;;		_PWM
  3904 ;; This function uses a non-reentrant model
  3905 ;;
  3906                           
  3907                           	psect	text34
  3908   002B4E                     __ptext34:
  3909                           	callstack 0
  3910   002B4E                     _PWM1_16BIT_LoadBufferRegisters:
  3911                           	callstack 122
  3912   002B4E                     
  3913                           ;mcc_generated_files/pwm/src/pwm1_16bit.c: 152:     PWM1CONbits.LD = 1;
  3914   002B4E  8469               	bsf	105,2,c	;volatile
  3915   002B50  0012               	return		;funcret
  3916   002B52                     __end_of_PWM1_16BIT_LoadBufferRegisters:
  3917                           	callstack 0
  3918                           
  3919 ;; *************** function _PWM1_16BIT_Enable *****************
  3920 ;; Defined at:
  3921 ;;		line 121 in file "mcc_generated_files/pwm/src/pwm1_16bit.c"
  3922 ;; Parameters:    Size  Location     Type
  3923 ;;		None
  3924 ;; Auto vars:     Size  Location     Type
  3925 ;;		None
  3926 ;; Return value:  Size  Location     Type
  3927 ;;                  1    wreg      void 
  3928 ;; Registers used:
  3929 ;;		status,2, status,0
  3930 ;; Tracked objects:
  3931 ;;		On entry : 0/0
  3932 ;;		On exit  : 0/0
  3933 ;;		Unchanged: 0/0
  3934 ;; Data sizes:     COMRAM   BANK5   BANK6   BANK7   BANK8   BANK9  BANK10  BANK11  BANK12  BANK13  BANK14  BANK15  BANK1
      +6  BANK17  BANK18  BANK19  BANK20
  3935 ;;      Params:         0       0       0       0       0       0       0       0       0       0       0       0       
      +0       0       0       0       0
  3936 ;;      Locals:         0       0       0       0       0       0       0       0       0       0       0       0       
      +0       0       0       0       0
  3937 ;;      Temps:          0       0       0       0       0       0       0       0       0       0       0       0       
      +0       0       0       0       0
  3938 ;;      Totals:         0       0       0       0       0       0       0       0       0       0       0       0       
      +0       0       0       0       0
  3939 ;;Total ram usage:        0 bytes
  3940 ;; Hardware stack levels used: 1
  3941 ;; Hardware stack levels required when called: 3
  3942 ;; This function calls:
  3943 ;;		Nothing
  3944 ;; This function is called by:
  3945 ;;		_PWM
  3946 ;; This function uses a non-reentrant model
  3947 ;;
  3948                           
  3949                           	psect	text35
  3950   002B52                     __ptext35:
  3951                           	callstack 0
  3952   002B52                     _PWM1_16BIT_Enable:
  3953                           	callstack 122
  3954   002B52                     
  3955                           ;mcc_generated_files/pwm/src/pwm1_16bit.c: 123:     PWM1CON |= 0x80;
  3956   002B52  8E69               	bsf	105,7,c	;volatile
  3957   002B54  0012               	return		;funcret
  3958   002B56                     __end_of_PWM1_16BIT_Enable:
  3959                           	callstack 0
  3960                           
  3961 ;; *************** function _PWM1_16BIT_Disable *****************
  3962 ;; Defined at:
  3963 ;;		line 126 in file "mcc_generated_files/pwm/src/pwm1_16bit.c"
  3964 ;; Parameters:    Size  Location     Type
  3965 ;;		None
  3966 ;; Auto vars:     Size  Location     Type
  3967 ;;		None
  3968 ;; Return value:  Size  Location     Type
  3969 ;;                  1    wreg      void 
  3970 ;; Registers used:
  3971 ;;		status,2, status,0
  3972 ;; Tracked objects:
  3973 ;;		On entry : 0/0
  3974 ;;		On exit  : 0/0
  3975 ;;		Unchanged: 0/0
  3976 ;; Data sizes:     COMRAM   BANK5   BANK6   BANK7   BANK8   BANK9  BANK10  BANK11  BANK12  BANK13  BANK14  BANK15  BANK1
      +6  BANK17  BANK18  BANK19  BANK20
  3977 ;;      Params:         0       0       0       0       0       0       0       0       0       0       0       0       
      +0       0       0       0       0
  3978 ;;      Locals:         0       0       0       0       0       0       0       0       0       0       0       0       
      +0       0       0       0       0
  3979 ;;      Temps:          0       0       0       0       0       0       0       0       0       0       0       0       
      +0       0       0       0       0
  3980 ;;      Totals:         0       0       0       0       0       0       0       0       0       0       0       0       
      +0       0       0       0       0
  3981 ;;Total ram usage:        0 bytes
  3982 ;; Hardware stack levels used: 1
  3983 ;; Hardware stack levels required when called: 3
  3984 ;; This function calls:
  3985 ;;		Nothing
  3986 ;; This function is called by:
  3987 ;;		_PWM
  3988 ;; This function uses a non-reentrant model
  3989 ;;
  3990                           
  3991                           	psect	text36
  3992   002B56                     __ptext36:
  3993                           	callstack 0
  3994   002B56                     _PWM1_16BIT_Disable:
  3995                           	callstack 122
  3996   002B56                     
  3997                           ;mcc_generated_files/pwm/src/pwm1_16bit.c: 128:     PWM1CON &= (~0x80);
  3998   002B56  9E69               	bcf	105,7,c	;volatile
  3999   002B58  0012               	return		;funcret
  4000   002B5A                     __end_of_PWM1_16BIT_Disable:
  4001                           	callstack 0
  4002                           
  4003 ;; *************** function _Interrupt *****************
  4004 ;; Defined at:
  4005 ;;		line 59 in file "Labs/Lab08_Interrupts/Interrupt.c"
  4006 ;; Parameters:    Size  Location     Type
  4007 ;;		None
  4008 ;; Auto vars:     Size  Location     Type
  4009 ;;		None
  4010 ;; Return value:  Size  Location     Type
  4011 ;;                  1    wreg      void 
  4012 ;; Registers used:
  4013 ;;		wreg, status,2, status,0, cstack
  4014 ;; Tracked objects:
  4015 ;;		On entry : 0/0
  4016 ;;		On exit  : 0/0
  4017 ;;		Unchanged: 0/0
  4018 ;; Data sizes:     COMRAM   BANK5   BANK6   BANK7   BANK8   BANK9  BANK10  BANK11  BANK12  BANK13  BANK14  BANK15  BANK1
      +6  BANK17  BANK18  BANK19  BANK20
  4019 ;;      Params:         0       0       0       0       0       0       0       0       0       0       0       0       
      +0       0       0       0       0
  4020 ;;      Locals:         0       0       0       0       0       0       0       0       0       0       0       0       
      +0       0       0       0       0
  4021 ;;      Temps:          0       0       0       0       0       0       0       0       0       0       0       0       
      +0       0       0       0       0
  4022 ;;      Totals:         0       0       0       0       0       0       0       0       0       0       0       0       
      +0       0       0       0       0
  4023 ;;Total ram usage:        0 bytes
  4024 ;; Hardware stack levels used: 1
  4025 ;; Hardware stack levels required when called: 4
  4026 ;; This function calls:
  4027 ;;		_Timer0_OverflowCallbackRegister
  4028 ;; This function is called by:
  4029 ;;		_main
  4030 ;; This function uses a non-reentrant model
  4031 ;;
  4032                           
  4033                           	psect	text37
  4034   0026BA                     __ptext37:
  4035                           	callstack 0
  4036   0026BA                     _Interrupt:
  4037                           	callstack 122
  4038   0026BA                     
  4039                           ;Labs/Lab08_Interrupts/Interrupt.c: 61:     if (labState == 0) {
  4040   0026BA  505D               	movf	_labState^(0+1280),w,c
  4041   0026BC  A4D8               	btfss	status,2,c
  4042   0026BE  EF63  F013         	goto	u2071
  4043   0026C2  EF65  F013         	goto	u2070
  4044   0026C6                     u2071:
  4045   0026C6  EF76  F013         	goto	l4138
  4046   0026CA                     u2070:
  4047   0026CA  0E00               	movlw	0
  4048   0026CC  6EBE               	movwf	190,c	;volatile
  4049   0026CE  9AC0               	bcf	192,5,c	;volatile
  4050   0026D0  8ABE               	bsf	190,5,c	;volatile
  4051   0026D2                     
  4052                           ;Labs/Lab08_Interrupts/Interrupt.c: 65:         rotateReg = 1;
  4053   0026D2  0E01               	movlw	1
  4054   0026D4  6E54               	movwf	_rotateReg@Interrupt$F496^(0+1280),c
  4055   0026D6  9EB6               	bcf	182,7,c	;volatile
  4056   0026D8                     
  4057                           ;Labs/Lab08_Interrupts/Interrupt.c: 68:         (INTCON0bits.GIE = 1);
  4058   0026D8  8ED6               	bsf	214,7,c	;volatile
  4059   0026DA  8EAB               	bsf	1195,7,c	;volatile
  4060   0026DC                     
  4061                           ;Labs/Lab08_Interrupts/Interrupt.c: 71:         Timer0_OverflowCallbackRegister(LAB_ISR)
      +                          ;
  4062   0026DC  0EC8               	movlw	low _LAB_ISR
  4063   0026DE  6E04               	movwf	Timer0_OverflowCallbackRegister@CallbackHandler^(0+1280),c
  4064   0026E0  0E22               	movlw	high _LAB_ISR
  4065   0026E2  6E05               	movwf	(Timer0_OverflowCallbackRegister@CallbackHandler+1)^(0+1280),c
  4066   0026E4  EC82  F015         	call	_Timer0_OverflowCallbackRegister	;wreg free
  4067   0026E8                     
  4068                           ;Labs/Lab08_Interrupts/Interrupt.c: 73:         labState = 1;
  4069   0026E8  0E01               	movlw	1
  4070   0026EA  6E5D               	movwf	_labState^(0+1280),c
  4071   0026EC                     l4138:
  4072                           
  4073                           ;Labs/Lab08_Interrupts/Interrupt.c: 80:     if (switchEvent) {
  4074   0026EC  505E               	movf	_switchEvent^(0+1280),w,c
  4075   0026EE  B4D8               	btfsc	status,2,c
  4076   0026F0  EF7C  F013         	goto	u2081
  4077   0026F4  EF7E  F013         	goto	u2080
  4078   0026F8                     u2081:
  4079   0026F8  EF82  F013         	goto	l327
  4080   0026FC                     u2080:
  4081   0026FC  9EAB               	bcf	1195,7,c	;volatile
  4082   0026FE                     
  4083                           ;Labs/Lab08_Interrupts/Interrupt.c: 83:         (INTCON0bits.GIE = 0);
  4084   0026FE  9ED6               	bcf	214,7,c	;volatile
  4085   002700                     
  4086                           ;Labs/Lab08_Interrupts/Interrupt.c: 85:         labState = 0;
  4087   002700  0E00               	movlw	0
  4088   002702  6E5D               	movwf	_labState^(0+1280),c
  4089   002704                     l327:
  4090   002704  0012               	return		;funcret
  4091   002706                     __end_of_Interrupt:
  4092                           	callstack 0
  4093                           
  4094 ;; *************** function _Timer0_OverflowCallbackRegister *****************
  4095 ;; Defined at:
  4096 ;;		line 116 in file "mcc_generated_files/timer/src/tmr0.c"
  4097 ;; Parameters:    Size  Location     Type
  4098 ;;  CallbackHand    2    3[COMRAM] PTR FTN()void 
  4099 ;;		 -> Timer0_DefaultOverflowCallback(1), TMR2_DefaultOverflowCallback(1), Timer1_DefaultOverflowCallback(1), LAB_ISR(1
      +), 
  4100 ;; Auto vars:     Size  Location     Type
  4101 ;;		None
  4102 ;; Return value:  Size  Location     Type
  4103 ;;                  1    wreg      void 
  4104 ;; Registers used:
  4105 ;;		wreg, status,2, status,0
  4106 ;; Tracked objects:
  4107 ;;		On entry : 0/0
  4108 ;;		On exit  : 0/0
  4109 ;;		Unchanged: 0/0
  4110 ;; Data sizes:     COMRAM   BANK5   BANK6   BANK7   BANK8   BANK9  BANK10  BANK11  BANK12  BANK13  BANK14  BANK15  BANK1
      +6  BANK17  BANK18  BANK19  BANK20
  4111 ;;      Params:         2       0       0       0       0       0       0       0       0       0       0       0       
      +0       0       0       0       0
  4112 ;;      Locals:         0       0       0       0       0       0       0       0       0       0       0       0       
      +0       0       0       0       0
  4113 ;;      Temps:          0       0       0       0       0       0       0       0       0       0       0       0       
      +0       0       0       0       0
  4114 ;;      Totals:         2       0       0       0       0       0       0       0       0       0       0       0       
      +0       0       0       0       0
  4115 ;;Total ram usage:        2 bytes
  4116 ;; Hardware stack levels used: 1
  4117 ;; Hardware stack levels required when called: 3
  4118 ;; This function calls:
  4119 ;;		Nothing
  4120 ;; This function is called by:
  4121 ;;		_Interrupt
  4122 ;;		_Timer0_Initialize
  4123 ;; This function uses a non-reentrant model
  4124 ;;
  4125                           
  4126                           	psect	text38
  4127   002B04                     __ptext38:
  4128                           	callstack 0
  4129   002B04                     _Timer0_OverflowCallbackRegister:
  4130                           	callstack 121
  4131   002B04                     
  4132                           ;mcc_generated_files/timer/src/tmr0.c: 116: void Timer0_OverflowCallbackRegister(void (*
      +                           CallbackHandler)(void));mcc_generated_files/timer/src/tmr0.c: 117: {;mcc_generated_file
      +                          s/timer/src/tmr0.c: 118:     Timer0_OverflowCallback = CallbackHandler;
  4133   002B04  C504  F598         	movff	Timer0_OverflowCallbackRegister@CallbackHandler,_Timer0_OverflowCallback
  4134   002B08  C505  F599         	movff	Timer0_OverflowCallbackRegister@CallbackHandler+1,_Timer0_OverflowCallback+1
  4135   002B0C  0012               	return		;funcret
  4136   002B0E                     __end_of_Timer0_OverflowCallbackRegister:
  4137                           	callstack 0
  4138                           
  4139 ;; *************** function _HelloWorld *****************
  4140 ;; Defined at:
  4141 ;;		line 50 in file "Labs/Lab01_HelloWorld/HelloWorld.c"
  4142 ;; Parameters:    Size  Location     Type
  4143 ;;		None
  4144 ;; Auto vars:     Size  Location     Type
  4145 ;;		None
  4146 ;; Return value:  Size  Location     Type
  4147 ;;                  1    wreg      void 
  4148 ;; Registers used:
  4149 ;;		wreg, status,2, status,0
  4150 ;; Tracked objects:
  4151 ;;		On entry : 0/0
  4152 ;;		On exit  : 0/0
  4153 ;;		Unchanged: 0/0
  4154 ;; Data sizes:     COMRAM   BANK5   BANK6   BANK7   BANK8   BANK9  BANK10  BANK11  BANK12  BANK13  BANK14  BANK15  BANK1
      +6  BANK17  BANK18  BANK19  BANK20
  4155 ;;      Params:         0       0       0       0       0       0       0       0       0       0       0       0       
      +0       0       0       0       0
  4156 ;;      Locals:         0       0       0       0       0       0       0       0       0       0       0       0       
      +0       0       0       0       0
  4157 ;;      Temps:          0       0       0       0       0       0       0       0       0       0       0       0       
      +0       0       0       0       0
  4158 ;;      Totals:         0       0       0       0       0       0       0       0       0       0       0       0       
      +0       0       0       0       0
  4159 ;;Total ram usage:        0 bytes
  4160 ;; Hardware stack levels used: 1
  4161 ;; Hardware stack levels required when called: 3
  4162 ;; This function calls:
  4163 ;;		Nothing
  4164 ;; This function is called by:
  4165 ;;		_main
  4166 ;; This function uses a non-reentrant model
  4167 ;;
  4168                           
  4169                           	psect	text39
  4170   002790                     __ptext39:
  4171                           	callstack 0
  4172   002790                     _HelloWorld:
  4173                           	callstack 123
  4174   002790                     
  4175                           ;Labs/Lab01_HelloWorld/HelloWorld.c: 51:     if (labState == 0) {
  4176   002790  505D               	movf	_labState^(0+1280),w,c
  4177   002792  A4D8               	btfss	status,2,c
  4178   002794  EFCE  F013         	goto	u451
  4179   002798  EFD0  F013         	goto	u450
  4180   00279C                     u451:
  4181   00279C  EFD5  F013         	goto	l2704
  4182   0027A0                     u450:
  4183   0027A0  0E00               	movlw	0
  4184   0027A2  6EBE               	movwf	190,c	;volatile
  4185   0027A4  9AC0               	bcf	192,5,c	;volatile
  4186   0027A6                     
  4187                           ;Labs/Lab01_HelloWorld/HelloWorld.c: 54:         labState = 1;
  4188   0027A6  0E01               	movlw	1
  4189   0027A8  6E5D               	movwf	_labState^(0+1280),c
  4190   0027AA                     l2704:
  4191                           
  4192                           ;Labs/Lab01_HelloWorld/HelloWorld.c: 57:     if (labState == 1) {
  4193   0027AA  045D               	decf	_labState^(0+1280),w,c
  4194   0027AC  A4D8               	btfss	status,2,c
  4195   0027AE  EFDB  F013         	goto	u461
  4196   0027B2  EFDD  F013         	goto	u460
  4197   0027B6                     u461:
  4198   0027B6  EFDE  F013         	goto	l2706
  4199   0027BA                     u460:
  4200   0027BA  8ABE               	bsf	190,5,c	;volatile
  4201   0027BC                     l2706:
  4202                           
  4203                           ;Labs/Lab01_HelloWorld/HelloWorld.c: 61:     if (switchEvent) {
  4204   0027BC  505E               	movf	_switchEvent^(0+1280),w,c
  4205   0027BE  B4D8               	btfsc	status,2,c
  4206   0027C0  EFE4  F013         	goto	u471
  4207   0027C4  EFE6  F013         	goto	u470
  4208   0027C8                     u471:
  4209   0027C8  EFE8  F013         	goto	l24
  4210   0027CC                     u470:
  4211   0027CC                     
  4212                           ;Labs/Lab01_HelloWorld/HelloWorld.c: 62:         labState = 0;
  4213   0027CC  0E00               	movlw	0
  4214   0027CE  6E5D               	movwf	_labState^(0+1280),c
  4215   0027D0                     l24:
  4216   0027D0  0012               	return		;funcret
  4217   0027D2                     __end_of_HelloWorld:
  4218                           	callstack 0
  4219                           
  4220 ;; *************** function _EEPROM *****************
  4221 ;; Defined at:
  4222 ;;		line 58 in file "Labs/Lab10_EEPROM/EEPROM.c"
  4223 ;; Parameters:    Size  Location     Type
  4224 ;;		None
  4225 ;; Auto vars:     Size  Location     Type
  4226 ;;		None
  4227 ;; Return value:  Size  Location     Type
  4228 ;;                  1    wreg      void 
  4229 ;; Registers used:
  4230 ;;		wreg, fsr1l, fsr1h, fsr2l, fsr2h, status,2, status,0, tblptrl, tblptrh, tblptru, cstack
  4231 ;; Tracked objects:
  4232 ;;		On entry : 0/0
  4233 ;;		On exit  : 0/0
  4234 ;;		Unchanged: 0/0
  4235 ;; Data sizes:     COMRAM   BANK5   BANK6   BANK7   BANK8   BANK9  BANK10  BANK11  BANK12  BANK13  BANK14  BANK15  BANK1
      +6  BANK17  BANK18  BANK19  BANK20
  4236 ;;      Params:         0       0       0       0       0       0       0       0       0       0       0       0       
      +0       0       0       0       0
  4237 ;;      Locals:         0       0       0       0       0       0       0       0       0       0       0       0       
      +0       0       0       0       0
  4238 ;;      Temps:          1       0       0       0       0       0       0       0       0       0       0       0       
      +0       0       0       0       0
  4239 ;;      Totals:         1       0       0       0       0       0       0       0       0       0       0       0       
      +0       0       0       0       0
  4240 ;;Total ram usage:        1 bytes
  4241 ;; Hardware stack levels used: 1
  4242 ;; Hardware stack levels required when called: 12
  4243 ;; This function calls:
  4244 ;;		_ADCC_GetSingleConversion
  4245 ;;		_EEPROM_Read
  4246 ;;		_EEPROM_Write
  4247 ;;		_NVM_UnlockKeyClear
  4248 ;;		_NVM_UnlockKeySet
  4249 ;;		_printf
  4250 ;; This function is called by:
  4251 ;;		_main
  4252 ;; This function uses a non-reentrant model
  4253 ;;
  4254                           
  4255                           	psect	text40
  4256   001A4C                     __ptext40:
  4257                           	callstack 0
  4258   001A4C                     _EEPROM:
  4259                           	callstack 114
  4260   001A4C                     
  4261                           ;Labs/Lab10_EEPROM/EEPROM.c: 60:     if (labState == 0) {
  4262   001A4C  505D               	movf	_labState^(0+1280),w,c
  4263   001A4E  A4D8               	btfss	status,2,c
  4264   001A50  EF2C  F00D         	goto	u2091
  4265   001A54  EF2E  F00D         	goto	u2090
  4266   001A58                     u2091:
  4267   001A58  EF33  F00D         	goto	l4148
  4268   001A5C                     u2090:
  4269   001A5C  0E00               	movlw	0
  4270   001A5E  6EBE               	movwf	190,c	;volatile
  4271   001A60  9AC0               	bcf	192,5,c	;volatile
  4272   001A62                     
  4273                           ;Labs/Lab10_EEPROM/EEPROM.c: 63:         labState = 1;
  4274   001A62  0E01               	movlw	1
  4275   001A64  6E5D               	movwf	_labState^(0+1280),c
  4276   001A66                     l4148:
  4277                           
  4278                           ;Labs/Lab10_EEPROM/EEPROM.c: 66:     if (labState == 1) {
  4279   001A66  045D               	decf	_labState^(0+1280),w,c
  4280   001A68  A4D8               	btfss	status,2,c
  4281   001A6A  EF39  F00D         	goto	u2101
  4282   001A6E  EF3B  F00D         	goto	u2100
  4283   001A72                     u2101:
  4284   001A72  EF9F  F00D         	goto	l4170
  4285   001A76                     u2100:
  4286   001A76                     
  4287                           ;Labs/Lab10_EEPROM/EEPROM.c: 69:         NVM_UnlockKeySet((0xAA55U));
  4288   001A76  0EAA               	movlw	170
  4289   001A78  6E05               	movwf	(NVM_UnlockKeySet@unlockKey+1)^(0+1280),c
  4290   001A7A  0E55               	movlw	85
  4291   001A7C  6E04               	movwf	NVM_UnlockKeySet@unlockKey^(0+1280),c
  4292   001A7E  EC87  F015         	call	_NVM_UnlockKeySet	;wreg free
  4293   001A82                     
  4294                           ;Labs/Lab10_EEPROM/EEPROM.c: 72:         adcResult = ADCC_GetSingleConversion(POT_CHANNE
      +                          L) >> 8;
  4295   001A82  0E10               	movlw	16
  4296   001A84  EC52  F014         	call	_ADCC_GetSingleConversion
  4297   001A88  C505  F504         	movff	?_ADCC_GetSingleConversion+1,?_ADCC_GetSingleConversion
  4298   001A8C  6A05               	clrf	(?_ADCC_GetSingleConversion+1)^(0+1280),c
  4299   001A8E  5004               	movf	?_ADCC_GetSingleConversion^(0+1280),w,c
  4300   001A90  6E53               	movwf	_adcResult@EEPROM$F644^(0+1280),c
  4301   001A92                     
  4302                           ;Labs/Lab10_EEPROM/EEPROM.c: 73:         EEPROM_Write((0x380000U), adcResult);
  4303   001A92  0E00               	movlw	0
  4304   001A94  6E04               	movwf	EEPROM_Write@address^(0+1280),c
  4305   001A96  0E00               	movlw	0
  4306   001A98  6E05               	movwf	(EEPROM_Write@address+1)^(0+1280),c
  4307   001A9A  0E38               	movlw	56
  4308   001A9C  6E06               	movwf	(EEPROM_Write@address+2)^(0+1280),c
  4309   001A9E  C553  F507         	movff	_adcResult@EEPROM$F644,EEPROM_Write@data
  4310   001AA2  ECB7  F012         	call	_EEPROM_Write	;wreg free
  4311   001AA6                     
  4312                           ;Labs/Lab10_EEPROM/EEPROM.c: 76:         printf("ADC Result: %d\n\r", ADRES);
  4313   001AA6  0E55               	movlw	low STR_1
  4314   001AA8  6E44               	movwf	printf@fmt^(0+1280),c
  4315   001AAA  0E16               	movlw	high STR_1
  4316   001AAC  6E45               	movwf	(printf@fmt+1)^(0+1280),c
  4317   001AAE  C3EA F546          	movff	1002,?_printf+2	;volatile
  4318   001AB2  C3EB F547          	movff	1003,?_printf+3	;volatile
  4319   001AB6  ECE6  F014         	call	_printf	;wreg free
  4320   001ABA                     
  4321                           ;Labs/Lab10_EEPROM/EEPROM.c: 79:         ledDisplay = EEPROM_Read((0x380000U));
  4322   001ABA  0E00               	movlw	0
  4323   001ABC  6E04               	movwf	EEPROM_Read@address^(0+1280),c
  4324   001ABE  0E00               	movlw	0
  4325   001AC0  6E05               	movwf	(EEPROM_Read@address+1)^(0+1280),c
  4326   001AC2  0E38               	movlw	56
  4327   001AC4  6E06               	movwf	(EEPROM_Read@address+2)^(0+1280),c
  4328   001AC6  EC3B  F014         	call	_EEPROM_Read	;wreg free
  4329   001ACA  6E52               	movwf	_ledDisplay^(0+1280),c
  4330   001ACC                     
  4331                           ;Labs/Lab10_EEPROM/EEPROM.c: 82:         NVM_UnlockKeyClear();
  4332   001ACC  EC8C  F015         	call	_NVM_UnlockKeyClear	;wreg free
  4333   001AD0                     
  4334                           ;Labs/Lab10_EEPROM/EEPROM.c: 85:         LATAbits.LATA5 = ledDisplay & 1;
  4335   001AD0  C552  F54A         	movff	_ledDisplay,??_EEPROM
  4336   001AD4  0E01               	movlw	1
  4337   001AD6  164A               	andwf	??_EEPROM^(0+1280),f,c
  4338   001AD8  3A4A               	swapf	??_EEPROM^(0+1280),f,c
  4339   001ADA  464A               	rlncf	??_EEPROM^(0+1280),f,c
  4340   001ADC  50BE               	movf	190,w,c	;volatile
  4341   001ADE  184A               	xorwf	??_EEPROM^(0+1280),w,c
  4342   001AE0  0BDF               	andlw	-33
  4343   001AE2  184A               	xorwf	??_EEPROM^(0+1280),w,c
  4344   001AE4  6EBE               	movwf	190,c	;volatile
  4345   001AE6                     
  4346                           ;Labs/Lab10_EEPROM/EEPROM.c: 86:         LATAbits.LATA1 = (ledDisplay & 2) >> 1;
  4347   001AE6  C552  F54A         	movff	_ledDisplay,??_EEPROM
  4348   001AEA  90D8               	bcf	status,0,c
  4349   001AEC  324A               	rrcf	??_EEPROM^(0+1280),f,c
  4350   001AEE  0E01               	movlw	1
  4351   001AF0  164A               	andwf	??_EEPROM^(0+1280),f,c
  4352   001AF2  464A               	rlncf	??_EEPROM^(0+1280),f,c
  4353   001AF4  50BE               	movf	190,w,c	;volatile
  4354   001AF6  184A               	xorwf	??_EEPROM^(0+1280),w,c
  4355   001AF8  0BFD               	andlw	-3
  4356   001AFA  184A               	xorwf	??_EEPROM^(0+1280),w,c
  4357   001AFC  6EBE               	movwf	190,c	;volatile
  4358   001AFE                     
  4359                           ;Labs/Lab10_EEPROM/EEPROM.c: 87:         LATAbits.LATA2 = (ledDisplay & 4) >> 2;
  4360   001AFE  C552  F54A         	movff	_ledDisplay,??_EEPROM
  4361   001B02  90D8               	bcf	status,0,c
  4362   001B04  324A               	rrcf	??_EEPROM^(0+1280),f,c
  4363   001B06  90D8               	bcf	status,0,c
  4364   001B08  324A               	rrcf	??_EEPROM^(0+1280),f,c
  4365   001B0A  0E01               	movlw	1
  4366   001B0C  164A               	andwf	??_EEPROM^(0+1280),f,c
  4367   001B0E  464A               	rlncf	??_EEPROM^(0+1280),f,c
  4368   001B10  464A               	rlncf	??_EEPROM^(0+1280),f,c
  4369   001B12  50BE               	movf	190,w,c	;volatile
  4370   001B14  184A               	xorwf	??_EEPROM^(0+1280),w,c
  4371   001B16  0BFB               	andlw	-5
  4372   001B18  184A               	xorwf	??_EEPROM^(0+1280),w,c
  4373   001B1A  6EBE               	movwf	190,c	;volatile
  4374   001B1C                     
  4375                           ;Labs/Lab10_EEPROM/EEPROM.c: 88:         LATCbits.LATC5 = (ledDisplay & 8) >> 3;
  4376   001B1C  C552  F54A         	movff	_ledDisplay,??_EEPROM
  4377   001B20  90D8               	bcf	status,0,c
  4378   001B22  324A               	rrcf	??_EEPROM^(0+1280),f,c
  4379   001B24  90D8               	bcf	status,0,c
  4380   001B26  324A               	rrcf	??_EEPROM^(0+1280),f,c
  4381   001B28  90D8               	bcf	status,0,c
  4382   001B2A  324A               	rrcf	??_EEPROM^(0+1280),f,c
  4383   001B2C  0E01               	movlw	1
  4384   001B2E  164A               	andwf	??_EEPROM^(0+1280),f,c
  4385   001B30  3A4A               	swapf	??_EEPROM^(0+1280),f,c
  4386   001B32  464A               	rlncf	??_EEPROM^(0+1280),f,c
  4387   001B34  50C0               	movf	192,w,c	;volatile
  4388   001B36  184A               	xorwf	??_EEPROM^(0+1280),w,c
  4389   001B38  0BDF               	andlw	-33
  4390   001B3A  184A               	xorwf	??_EEPROM^(0+1280),w,c
  4391   001B3C  6EC0               	movwf	192,c	;volatile
  4392   001B3E                     l4170:
  4393                           
  4394                           ;Labs/Lab10_EEPROM/EEPROM.c: 92:     if (switchEvent) {
  4395   001B3E  505E               	movf	_switchEvent^(0+1280),w,c
  4396   001B40  B4D8               	btfsc	status,2,c
  4397   001B42  EFA5  F00D         	goto	u2111
  4398   001B46  EFA7  F00D         	goto	u2110
  4399   001B4A                     u2111:
  4400   001B4A  EFA9  F00D         	goto	l393
  4401   001B4E                     u2110:
  4402   001B4E                     
  4403                           ;Labs/Lab10_EEPROM/EEPROM.c: 93:         labState = 0;
  4404   001B4E  0E00               	movlw	0
  4405   001B50  6E5D               	movwf	_labState^(0+1280),c
  4406   001B52                     l393:
  4407   001B52  0012               	return		;funcret
  4408   001B54                     __end_of_EEPROM:
  4409                           	callstack 0
  4410                           
  4411 ;; *************** function _NVM_UnlockKeySet *****************
  4412 ;; Defined at:
  4413 ;;		line 70 in file "mcc_generated_files/nvm/src/nvm.c"
  4414 ;; Parameters:    Size  Location     Type
  4415 ;;  unlockKey       2    3[COMRAM] unsigned short 
  4416 ;; Auto vars:     Size  Location     Type
  4417 ;;		None
  4418 ;; Return value:  Size  Location     Type
  4419 ;;                  1    wreg      void 
  4420 ;; Registers used:
  4421 ;;		wreg, status,2
  4422 ;; Tracked objects:
  4423 ;;		On entry : 0/0
  4424 ;;		On exit  : 0/0
  4425 ;;		Unchanged: 0/0
  4426 ;; Data sizes:     COMRAM   BANK5   BANK6   BANK7   BANK8   BANK9  BANK10  BANK11  BANK12  BANK13  BANK14  BANK15  BANK1
      +6  BANK17  BANK18  BANK19  BANK20
  4427 ;;      Params:         2       0       0       0       0       0       0       0       0       0       0       0       
      +0       0       0       0       0
  4428 ;;      Locals:         0       0       0       0       0       0       0       0       0       0       0       0       
      +0       0       0       0       0
  4429 ;;      Temps:          0       0       0       0       0       0       0       0       0       0       0       0       
      +0       0       0       0       0
  4430 ;;      Totals:         2       0       0       0       0       0       0       0       0       0       0       0       
      +0       0       0       0       0
  4431 ;;Total ram usage:        2 bytes
  4432 ;; Hardware stack levels used: 1
  4433 ;; Hardware stack levels required when called: 3
  4434 ;; This function calls:
  4435 ;;		Nothing
  4436 ;; This function is called by:
  4437 ;;		_EEPROM
  4438 ;; This function uses a non-reentrant model
  4439 ;;
  4440                           
  4441                           	psect	text41
  4442   002B0E                     __ptext41:
  4443                           	callstack 0
  4444   002B0E                     _NVM_UnlockKeySet:
  4445                           	callstack 122
  4446   002B0E                     
  4447                           ;mcc_generated_files/nvm/src/nvm.c: 70: void NVM_UnlockKeySet(uint16_t unlockKey);mcc_ge
      +                          nerated_files/nvm/src/nvm.c: 71: {;mcc_generated_files/nvm/src/nvm.c: 72:     unlockKeyH
      +                          igh = (uint8_t) (unlockKey >> 8);
  4448   002B0E  5005               	movf	(NVM_UnlockKeySet@unlockKey+1)^(0+1280),w,c
  4449   002B10  6E50               	movwf	_unlockKeyHigh^(0+1280),c	;volatile
  4450   002B12                     
  4451                           ;mcc_generated_files/nvm/src/nvm.c: 73:     unlockKeyLow = (uint8_t) unlockKey;
  4452   002B12  C504  F551         	movff	NVM_UnlockKeySet@unlockKey,_unlockKeyLow	;volatile
  4453   002B16  0012               	return		;funcret
  4454   002B18                     __end_of_NVM_UnlockKeySet:
  4455                           	callstack 0
  4456                           
  4457 ;; *************** function _NVM_UnlockKeyClear *****************
  4458 ;; Defined at:
  4459 ;;		line 76 in file "mcc_generated_files/nvm/src/nvm.c"
  4460 ;; Parameters:    Size  Location     Type
  4461 ;;		None
  4462 ;; Auto vars:     Size  Location     Type
  4463 ;;		None
  4464 ;; Return value:  Size  Location     Type
  4465 ;;                  1    wreg      void 
  4466 ;; Registers used:
  4467 ;;		wreg, status,2
  4468 ;; Tracked objects:
  4469 ;;		On entry : 0/0
  4470 ;;		On exit  : 0/0
  4471 ;;		Unchanged: 0/0
  4472 ;; Data sizes:     COMRAM   BANK5   BANK6   BANK7   BANK8   BANK9  BANK10  BANK11  BANK12  BANK13  BANK14  BANK15  BANK1
      +6  BANK17  BANK18  BANK19  BANK20
  4473 ;;      Params:         0       0       0       0       0       0       0       0       0       0       0       0       
      +0       0       0       0       0
  4474 ;;      Locals:         0       0       0       0       0       0       0       0       0       0       0       0       
      +0       0       0       0       0
  4475 ;;      Temps:          0       0       0       0       0       0       0       0       0       0       0       0       
      +0       0       0       0       0
  4476 ;;      Totals:         0       0       0       0       0       0       0       0       0       0       0       0       
      +0       0       0       0       0
  4477 ;;Total ram usage:        0 bytes
  4478 ;; Hardware stack levels used: 1
  4479 ;; Hardware stack levels required when called: 3
  4480 ;; This function calls:
  4481 ;;		Nothing
  4482 ;; This function is called by:
  4483 ;;		_EEPROM
  4484 ;; This function uses a non-reentrant model
  4485 ;;
  4486                           
  4487                           	psect	text42
  4488   002B18                     __ptext42:
  4489                           	callstack 0
  4490   002B18                     _NVM_UnlockKeyClear:
  4491                           	callstack 122
  4492   002B18                     
  4493                           ;mcc_generated_files/nvm/src/nvm.c: 78:     unlockKeyHigh = 0x00;
  4494   002B18  0E00               	movlw	0
  4495   002B1A  6E50               	movwf	_unlockKeyHigh^(0+1280),c	;volatile
  4496                           
  4497                           ;mcc_generated_files/nvm/src/nvm.c: 79:     unlockKeyLow = 0x00;
  4498   002B1C  0E00               	movlw	0
  4499   002B1E  6E51               	movwf	_unlockKeyLow^(0+1280),c	;volatile
  4500   002B20  0012               	return		;funcret
  4501   002B22                     __end_of_NVM_UnlockKeyClear:
  4502                           	callstack 0
  4503                           
  4504 ;; *************** function _EEPROM_Write *****************
  4505 ;; Defined at:
  4506 ;;		line 309 in file "mcc_generated_files/nvm/src/nvm.c"
  4507 ;; Parameters:    Size  Location     Type
  4508 ;;  address         3    3[COMRAM] unsigned um
  4509 ;;  data            1    6[COMRAM] unsigned char 
  4510 ;; Auto vars:     Size  Location     Type
  4511 ;;  globalInterr    1   10[COMRAM] unsigned char 
  4512 ;; Return value:  Size  Location     Type
  4513 ;;                  1    wreg      void 
  4514 ;; Registers used:
  4515 ;;		wreg, status,2
  4516 ;; Tracked objects:
  4517 ;;		On entry : 0/0
  4518 ;;		On exit  : 0/0
  4519 ;;		Unchanged: 0/0
  4520 ;; Data sizes:     COMRAM   BANK5   BANK6   BANK7   BANK8   BANK9  BANK10  BANK11  BANK12  BANK13  BANK14  BANK15  BANK1
      +6  BANK17  BANK18  BANK19  BANK20
  4521 ;;      Params:         4       0       0       0       0       0       0       0       0       0       0       0       
      +0       0       0       0       0
  4522 ;;      Locals:         1       0       0       0       0       0       0       0       0       0       0       0       
      +0       0       0       0       0
  4523 ;;      Temps:          3       0       0       0       0       0       0       0       0       0       0       0       
      +0       0       0       0       0
  4524 ;;      Totals:         8       0       0       0       0       0       0       0       0       0       0       0       
      +0       0       0       0       0
  4525 ;;Total ram usage:        8 bytes
  4526 ;; Hardware stack levels used: 1
  4527 ;; Hardware stack levels required when called: 3
  4528 ;; This function calls:
  4529 ;;		Nothing
  4530 ;; This function is called by:
  4531 ;;		_EEPROM
  4532 ;; This function uses a non-reentrant model
  4533 ;;
  4534                           
  4535                           ;# 
  4536                           
  4537                           	psect	text43
  4538   00256E                     __ptext43:
  4539                           	callstack 0
  4540   00256E                     _EEPROM_Write:
  4541                           	callstack 122
  4542   00256E                     
  4543                           ;mcc_generated_files/nvm/src/nvm.c: 309: void EEPROM_Write(eeprom_address_t address, eep
      +                          rom_data_t data);mcc_generated_files/nvm/src/nvm.c: 310: {;mcc_generated_files/nvm/src/n
      +                          vm.c: 312:     uint8_t globalInterruptBitValue = INTCON0bits.GIE;
  4544   00256E  0E00               	movlw	0
  4545   002570  BED6               	btfsc	214,7,c	;volatile
  4546   002572  0E01               	movlw	1
  4547   002574  6E0B               	movwf	EEPROM_Write@globalInterruptBitValue^(0+1280),c
  4548   002576                     
  4549                           ;mcc_generated_files/nvm/src/nvm.c: 315:     NVMADRU = (uint8_t) (address >> 16);
  4550   002576  C506  F045         	movff	EEPROM_Write@address+2,69	;volatile
  4551   00257A                     
  4552                           ;mcc_generated_files/nvm/src/nvm.c: 316:     NVMADRH = (uint8_t) (address >> 8);
  4553   00257A  C504  F508         	movff	EEPROM_Write@address,??_EEPROM_Write
  4554   00257E  C505  F509         	movff	EEPROM_Write@address+1,??_EEPROM_Write+1
  4555   002582  C506  F50A         	movff	EEPROM_Write@address+2,??_EEPROM_Write+2
  4556   002586  C509  F508         	movff	??_EEPROM_Write+1,??_EEPROM_Write
  4557   00258A  C50A  F509         	movff	??_EEPROM_Write+2,??_EEPROM_Write+1
  4558   00258E  6A0A               	clrf	(??_EEPROM_Write+2)^(0+1280),c
  4559   002590  5008               	movf	??_EEPROM_Write^(0+1280),w,c
  4560   002592  0100               	movlb	0	; () banked
  4561   002594  6F44               	movwf	68,b	;volatile
  4562   002596                     
  4563                           ; BSR set to: 0
  4564                           ;mcc_generated_files/nvm/src/nvm.c: 317:     NVMADRL = (uint8_t) address;
  4565   002596  C504  F043         	movff	EEPROM_Write@address,67	;volatile
  4566   00259A                     
  4567                           ; BSR set to: 0
  4568                           ;mcc_generated_files/nvm/src/nvm.c: 320:     NVMDATL = data;
  4569   00259A  C507  F046         	movff	EEPROM_Write@data,70	;volatile
  4570   00259E                     
  4571                           ; BSR set to: 0
  4572                           ;mcc_generated_files/nvm/src/nvm.c: 323:     NVMCON1bits.NVMCMD = 0x03;
  4573   00259E  5141               	movf	65,w,b	;volsfr
  4574   0025A0  0BF8               	andlw	-8
  4575   0025A2  0903               	iorlw	3
  4576   0025A4  6F41               	movwf	65,b	;volsfr
  4577   0025A6                     
  4578                           ; BSR set to: 0
  4579                           ;mcc_generated_files/nvm/src/nvm.c: 326:     INTCON0bits.GIE = 0;
  4580   0025A6  9ED6               	bcf	214,7,c	;volatile
  4581                           
  4582                           ;# 
  4583                           ;# 
  4584   0025A8  0100               	banksel	66	;# 
  4585   0025AA                     
  4586                           ;mcc_generated_files/nvm/src/nvm.c: 332:     NVMLOCK = unlockKeyLow;
  4587   0025AA  C551  F042         	movff	_unlockKeyLow,66	;volatile
  4588   0025AE  5050               	movf	_unlockKeyHigh& (0+255),w,c	;# 
  4589   0025B0  6F42               	movwf	66,b	;# 
  4590   0025B2  8140               	bsf	64,0,b	;# 
  4591   0025B4                     
  4592                           ;mcc_generated_files/nvm/src/nvm.c: 341:     INTCON0bits.GIE = globalInterruptBitValue;
  4593   0025B4  B00B               	btfsc	EEPROM_Write@globalInterruptBitValue^(0+1280),0,c
  4594   0025B6  D002               	bra	u1835
  4595   0025B8  9ED6               	bcf	214,7,c	;volatile
  4596   0025BA  D001               	bra	u1836
  4597   0025BC                     u1835:
  4598   0025BC  8ED6               	bsf	214,7,c	;volatile
  4599   0025BE                     u1836:
  4600   0025BE                     
  4601                           ;mcc_generated_files/nvm/src/nvm.c: 344:     NVMCON1bits.NVMCMD = 0x00;
  4602   0025BE  0EF8               	movlw	-8
  4603   0025C0  0100               	movlb	0	; () banked
  4604   0025C2  1741               	andwf	65,f,b	;volsfr
  4605   0025C4                     
  4606                           ; BSR set to: 0
  4607   0025C4  0012               	return		;funcret
  4608   0025C6                     __end_of_EEPROM_Write:
  4609                           	callstack 0
  4610                           
  4611 ;; *************** function _EEPROM_Read *****************
  4612 ;; Defined at:
  4613 ;;		line 293 in file "mcc_generated_files/nvm/src/nvm.c"
  4614 ;; Parameters:    Size  Location     Type
  4615 ;;  address         3    3[COMRAM] unsigned um
  4616 ;; Auto vars:     Size  Location     Type
  4617 ;;		None
  4618 ;; Return value:  Size  Location     Type
  4619 ;;                  1    wreg      unsigned char 
  4620 ;; Registers used:
  4621 ;;		wreg, status,2
  4622 ;; Tracked objects:
  4623 ;;		On entry : 0/0
  4624 ;;		On exit  : 0/0
  4625 ;;		Unchanged: 0/0
  4626 ;; Data sizes:     COMRAM   BANK5   BANK6   BANK7   BANK8   BANK9  BANK10  BANK11  BANK12  BANK13  BANK14  BANK15  BANK1
      +6  BANK17  BANK18  BANK19  BANK20
  4627 ;;      Params:         3       0       0       0       0       0       0       0       0       0       0       0       
      +0       0       0       0       0
  4628 ;;      Locals:         0       0       0       0       0       0       0       0       0       0       0       0       
      +0       0       0       0       0
  4629 ;;      Temps:          3       0       0       0       0       0       0       0       0       0       0       0       
      +0       0       0       0       0
  4630 ;;      Totals:         6       0       0       0       0       0       0       0       0       0       0       0       
      +0       0       0       0       0
  4631 ;;Total ram usage:        6 bytes
  4632 ;; Hardware stack levels used: 1
  4633 ;; Hardware stack levels required when called: 3
  4634 ;; This function calls:
  4635 ;;		Nothing
  4636 ;; This function is called by:
  4637 ;;		_EEPROM
  4638 ;; This function uses a non-reentrant model
  4639 ;;
  4640                           
  4641                           	psect	text44
  4642   002876                     __ptext44:
  4643                           	callstack 0
  4644   002876                     _EEPROM_Read:
  4645                           	callstack 122
  4646   002876                     
  4647                           ;mcc_generated_files/nvm/src/nvm.c: 293: eeprom_data_t EEPROM_Read(eeprom_address_t addr
      +                          ess);mcc_generated_files/nvm/src/nvm.c: 294: {;mcc_generated_files/nvm/src/nvm.c: 296:  
      +                             NVMADRU = (uint8_t) (address >> 16);
  4648   002876  C506  F045         	movff	EEPROM_Read@address+2,69	;volatile
  4649   00287A                     
  4650                           ;mcc_generated_files/nvm/src/nvm.c: 297:     NVMADRH = (uint8_t) (address >> 8);
  4651   00287A  C504  F507         	movff	EEPROM_Read@address,??_EEPROM_Read
  4652   00287E  C505  F508         	movff	EEPROM_Read@address+1,??_EEPROM_Read+1
  4653   002882  C506  F509         	movff	EEPROM_Read@address+2,??_EEPROM_Read+2
  4654   002886  C508  F507         	movff	??_EEPROM_Read+1,??_EEPROM_Read
  4655   00288A  C509  F508         	movff	??_EEPROM_Read+2,??_EEPROM_Read+1
  4656   00288E  6A09               	clrf	(??_EEPROM_Read+2)^(0+1280),c
  4657   002890  5007               	movf	??_EEPROM_Read^(0+1280),w,c
  4658   002892  0100               	movlb	0	; () banked
  4659   002894  6F44               	movwf	68,b	;volatile
  4660   002896                     
  4661                           ; BSR set to: 0
  4662                           ;mcc_generated_files/nvm/src/nvm.c: 298:     NVMADRL = (uint8_t) address;
  4663   002896  C504  F043         	movff	EEPROM_Read@address,67	;volatile
  4664                           
  4665                           ;mcc_generated_files/nvm/src/nvm.c: 301:     NVMCON1bits.NVMCMD = 0x00;
  4666   00289A  0EF8               	movlw	-8
  4667   00289C  1741               	andwf	65,f,b	;volsfr
  4668   00289E                     
  4669                           ; BSR set to: 0
  4670                           ;mcc_generated_files/nvm/src/nvm.c: 304:     NVMCON0bits.GO = 1;
  4671   00289E  8140               	bsf	64,0,b	;volatile
  4672                           
  4673                           ;mcc_generated_files/nvm/src/nvm.c: 306:     return NVMDATL;
  4674   0028A0  5146               	movf	70,w,b	;volatile
  4675   0028A2                     
  4676                           ; BSR set to: 0
  4677   0028A2  0012               	return		;funcret
  4678   0028A4                     __end_of_EEPROM_Read:
  4679                           	callstack 0
  4680                           
  4681 ;; *************** function _Blink *****************
  4682 ;; Defined at:
  4683 ;;		line 60 in file "Labs/Lab02_Blink/Blink.c"
  4684 ;; Parameters:    Size  Location     Type
  4685 ;;		None
  4686 ;; Auto vars:     Size  Location     Type
  4687 ;;		None
  4688 ;; Return value:  Size  Location     Type
  4689 ;;                  1    wreg      void 
  4690 ;; Registers used:
  4691 ;;		wreg, status,2, status,0, cstack
  4692 ;; Tracked objects:
  4693 ;;		On entry : 0/0
  4694 ;;		On exit  : 0/0
  4695 ;;		Unchanged: 0/0
  4696 ;; Data sizes:     COMRAM   BANK5   BANK6   BANK7   BANK8   BANK9  BANK10  BANK11  BANK12  BANK13  BANK14  BANK15  BANK1
      +6  BANK17  BANK18  BANK19  BANK20
  4697 ;;      Params:         0       0       0       0       0       0       0       0       0       0       0       0       
      +0       0       0       0       0
  4698 ;;      Locals:         0       0       0       0       0       0       0       0       0       0       0       0       
      +0       0       0       0       0
  4699 ;;      Temps:          1       0       0       0       0       0       0       0       0       0       0       0       
      +0       0       0       0       0
  4700 ;;      Totals:         1       0       0       0       0       0       0       0       0       0       0       0       
      +0       0       0       0       0
  4701 ;;Total ram usage:        1 bytes
  4702 ;; Hardware stack levels used: 1
  4703 ;; Hardware stack levels required when called: 5
  4704 ;; This function calls:
  4705 ;;		_Timer1_Reload
  4706 ;;		_Timer1_Start
  4707 ;;		_Timer1_Stop
  4708 ;; This function is called by:
  4709 ;;		_main
  4710 ;; This function uses a non-reentrant model
  4711 ;;
  4712                           
  4713                           	psect	text45
  4714   002116                     __ptext45:
  4715                           	callstack 0
  4716   002116                     _Blink:
  4717                           	callstack 121
  4718   002116                     
  4719                           ;Labs/Lab02_Blink/Blink.c: 61:     if (labState == 0) {
  4720   002116  505D               	movf	_labState^(0+1280),w,c
  4721   002118  A4D8               	btfss	status,2,c
  4722   00211A  EF91  F010         	goto	u1841
  4723   00211E  EF93  F010         	goto	u1840
  4724   002122                     u1841:
  4725   002122  EF9A  F010         	goto	l3980
  4726   002126                     u1840:
  4727   002126  0E00               	movlw	0
  4728   002128  6EBE               	movwf	190,c	;volatile
  4729   00212A  9AC0               	bcf	192,5,c	;volatile
  4730   00212C                     
  4731                           ;Labs/Lab02_Blink/Blink.c: 63:         Timer1_Start();
  4732   00212C  ECA4  F015         	call	_Timer1_Start	;wreg free
  4733   002130                     
  4734                           ;Labs/Lab02_Blink/Blink.c: 65:         labState = 1;
  4735   002130  0E01               	movlw	1
  4736   002132  6E5D               	movwf	_labState^(0+1280),c
  4737   002134                     l3980:
  4738                           
  4739                           ;Labs/Lab02_Blink/Blink.c: 68:     if (labState == 1) {
  4740   002134  045D               	decf	_labState^(0+1280),w,c
  4741   002136  A4D8               	btfss	status,2,c
  4742   002138  EFA0  F010         	goto	u1851
  4743   00213C  EFA2  F010         	goto	u1850
  4744   002140                     u1851:
  4745   002140  EFCA  F010         	goto	l3994
  4746   002144                     u1850:
  4747   002144                     l55:
  4748   002144  A8B6               	btfss	182,4,c	;volatile
  4749   002146  EFA7  F010         	goto	u1861
  4750   00214A  EFA9  F010         	goto	u1860
  4751   00214E                     u1861:
  4752   00214E  EFA2  F010         	goto	l55
  4753   002152                     u1860:
  4754   002152  98B6               	bcf	182,4,c	;volatile
  4755   002154                     
  4756                           ;Labs/Lab02_Blink/Blink.c: 72:         Timer1_Reload();
  4757   002154  EC4E  F015         	call	_Timer1_Reload	;wreg free
  4758   002158                     
  4759                           ;Labs/Lab02_Blink/Blink.c: 73:         flagCounter++;
  4760   002158  2A5B               	incf	_flagCounter^(0+1280),f,c
  4761   00215A                     
  4762                           ;Labs/Lab02_Blink/Blink.c: 75:         if (flagCounter == 3) {
  4763   00215A  0E03               	movlw	3
  4764   00215C  185B               	xorwf	_flagCounter^(0+1280),w,c
  4765   00215E  A4D8               	btfss	status,2,c
  4766   002160  EFB4  F010         	goto	u1871
  4767   002164  EFB6  F010         	goto	u1870
  4768   002168                     u1871:
  4769   002168  EFCA  F010         	goto	l3994
  4770   00216C                     u1870:
  4771   00216C  BABE               	btfsc	190,5,c	;volatile
  4772   00216E  EFBB  F010         	goto	u1881
  4773   002172  EFBE  F010         	goto	u1880
  4774   002176                     u1881:
  4775   002176  0E01               	movlw	1
  4776   002178  EFBF  F010         	goto	u1886
  4777   00217C                     u1880:
  4778   00217C  0E00               	movlw	0
  4779   00217E                     u1886:
  4780   00217E  0AFF               	xorlw	255
  4781   002180  6E06               	movwf	??_Blink^(0+1280),c
  4782   002182  3A06               	swapf	??_Blink^(0+1280),f,c
  4783   002184  4606               	rlncf	??_Blink^(0+1280),f,c
  4784   002186  50BE               	movf	190,w,c	;volatile
  4785   002188  1806               	xorwf	??_Blink^(0+1280),w,c
  4786   00218A  0BDF               	andlw	-33
  4787   00218C  1806               	xorwf	??_Blink^(0+1280),w,c
  4788   00218E  6EBE               	movwf	190,c	;volatile
  4789   002190                     
  4790                           ;Labs/Lab02_Blink/Blink.c: 77:             flagCounter = 0;
  4791   002190  0E00               	movlw	0
  4792   002192  6E5B               	movwf	_flagCounter^(0+1280),c
  4793   002194                     l3994:
  4794                           
  4795                           ;Labs/Lab02_Blink/Blink.c: 81:     if (switchEvent) {
  4796   002194  505E               	movf	_switchEvent^(0+1280),w,c
  4797   002196  B4D8               	btfsc	status,2,c
  4798   002198  EFD0  F010         	goto	u1891
  4799   00219C  EFD2  F010         	goto	u1890
  4800   0021A0                     u1891:
  4801   0021A0  EFD6  F010         	goto	l64
  4802   0021A4                     u1890:
  4803   0021A4                     
  4804                           ;Labs/Lab02_Blink/Blink.c: 82:         Timer1_Stop();
  4805   0021A4  ECA1  F015         	call	_Timer1_Stop	;wreg free
  4806   0021A8                     
  4807                           ;Labs/Lab02_Blink/Blink.c: 83:         labState = 0;
  4808   0021A8  0E00               	movlw	0
  4809   0021AA  6E5D               	movwf	_labState^(0+1280),c
  4810   0021AC                     l64:
  4811   0021AC  0012               	return		;funcret
  4812   0021AE                     __end_of_Blink:
  4813                           	callstack 0
  4814                           
  4815 ;; *************** function _Timer1_Stop *****************
  4816 ;; Defined at:
  4817 ;;		line 90 in file "mcc_generated_files/timer/src/tmr1.c"
  4818 ;; Parameters:    Size  Location     Type
  4819 ;;		None
  4820 ;; Auto vars:     Size  Location     Type
  4821 ;;		None
  4822 ;; Return value:  Size  Location     Type
  4823 ;;                  1    wreg      void 
  4824 ;; Registers used:
  4825 ;;		None
  4826 ;; Tracked objects:
  4827 ;;		On entry : 0/0
  4828 ;;		On exit  : 0/0
  4829 ;;		Unchanged: 0/0
  4830 ;; Data sizes:     COMRAM   BANK5   BANK6   BANK7   BANK8   BANK9  BANK10  BANK11  BANK12  BANK13  BANK14  BANK15  BANK1
      +6  BANK17  BANK18  BANK19  BANK20
  4831 ;;      Params:         0       0       0       0       0       0       0       0       0       0       0       0       
      +0       0       0       0       0
  4832 ;;      Locals:         0       0       0       0       0       0       0       0       0       0       0       0       
      +0       0       0       0       0
  4833 ;;      Temps:          0       0       0       0       0       0       0       0       0       0       0       0       
      +0       0       0       0       0
  4834 ;;      Totals:         0       0       0       0       0       0       0       0       0       0       0       0       
      +0       0       0       0       0
  4835 ;;Total ram usage:        0 bytes
  4836 ;; Hardware stack levels used: 1
  4837 ;; Hardware stack levels required when called: 3
  4838 ;; This function calls:
  4839 ;;		Nothing
  4840 ;; This function is called by:
  4841 ;;		_Blink
  4842 ;;		_Timer1_Lab
  4843 ;;		_Timers
  4844 ;; This function uses a non-reentrant model
  4845 ;;
  4846                           
  4847                           	psect	text46
  4848   002B42                     __ptext46:
  4849                           	callstack 0
  4850   002B42                     _Timer1_Stop:
  4851                           	callstack 122
  4852   002B42                     
  4853                           ;mcc_generated_files/timer/src/tmr1.c: 93:     T1CONbits.TMR1ON = 0;
  4854   002B42  0103               	movlb	3	; () banked
  4855   002B44  9114               	bcf	20,0,b	;volatile
  4856   002B46                     
  4857                           ; BSR set to: 3
  4858   002B46  0012               	return		;funcret
  4859   002B48                     __end_of_Timer1_Stop:
  4860                           	callstack 0
  4861                           
  4862 ;; *************** function _Timer1_Start *****************
  4863 ;; Defined at:
  4864 ;;		line 84 in file "mcc_generated_files/timer/src/tmr1.c"
  4865 ;; Parameters:    Size  Location     Type
  4866 ;;		None
  4867 ;; Auto vars:     Size  Location     Type
  4868 ;;		None
  4869 ;; Return value:  Size  Location     Type
  4870 ;;                  1    wreg      void 
  4871 ;; Registers used:
  4872 ;;		None
  4873 ;; Tracked objects:
  4874 ;;		On entry : 0/0
  4875 ;;		On exit  : 0/0
  4876 ;;		Unchanged: 0/0
  4877 ;; Data sizes:     COMRAM   BANK5   BANK6   BANK7   BANK8   BANK9  BANK10  BANK11  BANK12  BANK13  BANK14  BANK15  BANK1
      +6  BANK17  BANK18  BANK19  BANK20
  4878 ;;      Params:         0       0       0       0       0       0       0       0       0       0       0       0       
      +0       0       0       0       0
  4879 ;;      Locals:         0       0       0       0       0       0       0       0       0       0       0       0       
      +0       0       0       0       0
  4880 ;;      Temps:          0       0       0       0       0       0       0       0       0       0       0       0       
      +0       0       0       0       0
  4881 ;;      Totals:         0       0       0       0       0       0       0       0       0       0       0       0       
      +0       0       0       0       0
  4882 ;;Total ram usage:        0 bytes
  4883 ;; Hardware stack levels used: 1
  4884 ;; Hardware stack levels required when called: 3
  4885 ;; This function calls:
  4886 ;;		Nothing
  4887 ;; This function is called by:
  4888 ;;		_Blink
  4889 ;;		_Timer1_Lab
  4890 ;;		_Timers
  4891 ;; This function uses a non-reentrant model
  4892 ;;
  4893                           
  4894                           	psect	text47
  4895   002B48                     __ptext47:
  4896                           	callstack 0
  4897   002B48                     _Timer1_Start:
  4898                           	callstack 122
  4899   002B48                     
  4900                           ;mcc_generated_files/timer/src/tmr1.c: 87:     T1CONbits.TMR1ON = 1;
  4901   002B48  0103               	movlb	3	; () banked
  4902   002B4A  8114               	bsf	20,0,b	;volatile
  4903   002B4C                     
  4904                           ; BSR set to: 3
  4905   002B4C  0012               	return		;funcret
  4906   002B4E                     __end_of_Timer1_Start:
  4907                           	callstack 0
  4908                           
  4909 ;; *************** function _Timer1_Reload *****************
  4910 ;; Defined at:
  4911 ;;		line 133 in file "mcc_generated_files/timer/src/tmr1.c"
  4912 ;; Parameters:    Size  Location     Type
  4913 ;;		None
  4914 ;; Auto vars:     Size  Location     Type
  4915 ;;		None
  4916 ;; Return value:  Size  Location     Type
  4917 ;;                  1    wreg      void 
  4918 ;; Registers used:
  4919 ;;		wreg, status,2, cstack
  4920 ;; Tracked objects:
  4921 ;;		On entry : 0/0
  4922 ;;		On exit  : 0/0
  4923 ;;		Unchanged: 0/0
  4924 ;; Data sizes:     COMRAM   BANK5   BANK6   BANK7   BANK8   BANK9  BANK10  BANK11  BANK12  BANK13  BANK14  BANK15  BANK1
      +6  BANK17  BANK18  BANK19  BANK20
  4925 ;;      Params:         0       0       0       0       0       0       0       0       0       0       0       0       
      +0       0       0       0       0
  4926 ;;      Locals:         0       0       0       0       0       0       0       0       0       0       0       0       
      +0       0       0       0       0
  4927 ;;      Temps:          0       0       0       0       0       0       0       0       0       0       0       0       
      +0       0       0       0       0
  4928 ;;      Totals:         0       0       0       0       0       0       0       0       0       0       0       0       
      +0       0       0       0       0
  4929 ;;Total ram usage:        0 bytes
  4930 ;; Hardware stack levels used: 1
  4931 ;; Hardware stack levels required when called: 4
  4932 ;; This function calls:
  4933 ;;		_Timer1_Write
  4934 ;; This function is called by:
  4935 ;;		_Blink
  4936 ;;		_Timer1_Lab
  4937 ;;		_Timers
  4938 ;; This function uses a non-reentrant model
  4939 ;;
  4940                           
  4941                           	psect	text48
  4942   002A9C                     __ptext48:
  4943                           	callstack 0
  4944   002A9C                     _Timer1_Reload:
  4945                           	callstack 121
  4946   002A9C                     
  4947                           ;mcc_generated_files/timer/src/tmr1.c: 135:     Timer1_Write(timer1ReloadVal);
  4948   002A9C  C56E  F504         	movff	_timer1ReloadVal,Timer1_Write@timerVal	;volatile
  4949   002AA0  C56F  F505         	movff	_timer1ReloadVal+1,Timer1_Write@timerVal+1	;volatile
  4950   002AA4  ECA9  F014         	call	_Timer1_Write	;wreg free
  4951   002AA8  0012               	return		;funcret
  4952   002AAA                     __end_of_Timer1_Reload:
  4953                           	callstack 0
  4954                           
  4955 ;; *************** function _Timer1_Write *****************
  4956 ;; Defined at:
  4957 ;;		line 111 in file "mcc_generated_files/timer/src/tmr1.c"
  4958 ;; Parameters:    Size  Location     Type
  4959 ;;  timerVal        2    3[COMRAM] unsigned int 
  4960 ;; Auto vars:     Size  Location     Type
  4961 ;;		None
  4962 ;; Return value:  Size  Location     Type
  4963 ;;                  1    wreg      void 
  4964 ;; Registers used:
  4965 ;;		wreg, status,2
  4966 ;; Tracked objects:
  4967 ;;		On entry : 0/0
  4968 ;;		On exit  : 0/0
  4969 ;;		Unchanged: 0/0
  4970 ;; Data sizes:     COMRAM   BANK5   BANK6   BANK7   BANK8   BANK9  BANK10  BANK11  BANK12  BANK13  BANK14  BANK15  BANK1
      +6  BANK17  BANK18  BANK19  BANK20
  4971 ;;      Params:         2       0       0       0       0       0       0       0       0       0       0       0       
      +0       0       0       0       0
  4972 ;;      Locals:         0       0       0       0       0       0       0       0       0       0       0       0       
      +0       0       0       0       0
  4973 ;;      Temps:          0       0       0       0       0       0       0       0       0       0       0       0       
      +0       0       0       0       0
  4974 ;;      Totals:         2       0       0       0       0       0       0       0       0       0       0       0       
      +0       0       0       0       0
  4975 ;;Total ram usage:        2 bytes
  4976 ;; Hardware stack levels used: 1
  4977 ;; Hardware stack levels required when called: 3
  4978 ;; This function calls:
  4979 ;;		Nothing
  4980 ;; This function is called by:
  4981 ;;		_Timer1_Reload
  4982 ;; This function uses a non-reentrant model
  4983 ;;
  4984                           
  4985                           	psect	text49
  4986   002952                     __ptext49:
  4987                           	callstack 0
  4988   002952                     _Timer1_Write:
  4989                           	callstack 121
  4990   002952                     
  4991                           ;mcc_generated_files/timer/src/tmr1.c: 111: void Timer1_Write(size_t timerVal);mcc_gener
      +                          ated_files/timer/src/tmr1.c: 112: {;mcc_generated_files/timer/src/tmr1.c: 113:     if (T
      +                          1CONbits.NOT_SYNC == 1)
  4992   002952  0103               	movlb	3	; () banked
  4993   002954  A514               	btfss	20,2,b	;volatile
  4994   002956  EFAF  F014         	goto	u1761
  4995   00295A  EFB1  F014         	goto	u1760
  4996   00295E                     u1761:
  4997   00295E  EFB9  F014         	goto	l3786
  4998   002962                     u1760:
  4999   002962                     
  5000                           ; BSR set to: 3
  5001                           ;mcc_generated_files/timer/src/tmr1.c: 114:     {;mcc_generated_files/timer/src/tmr1.c: 
      +                          116:         T1CONbits.TMR1ON = 0;
  5002   002962  9114               	bcf	20,0,b	;volatile
  5003   002964                     
  5004                           ; BSR set to: 3
  5005                           ;mcc_generated_files/timer/src/tmr1.c: 119:         TMR1H = (uint8_t)(timerVal >> 8);
  5006   002964  5005               	movf	(Timer1_Write@timerVal+1)^(0+1280),w,c
  5007   002966  6F13               	movwf	19,b	;volatile
  5008   002968                     
  5009                           ; BSR set to: 3
  5010                           ;mcc_generated_files/timer/src/tmr1.c: 120:         TMR1L = (uint8_t)timerVal;
  5011   002968  C504  F312         	movff	Timer1_Write@timerVal,786	;volatile
  5012   00296C                     
  5013                           ; BSR set to: 3
  5014                           ;mcc_generated_files/timer/src/tmr1.c: 123:         T1CONbits.TMR1ON = 1;
  5015   00296C  8114               	bsf	20,0,b	;volatile
  5016                           
  5017                           ;mcc_generated_files/timer/src/tmr1.c: 124:     }
  5018   00296E  EFBD  F014         	goto	l1023
  5019   002972                     l3786:
  5020                           
  5021                           ; BSR set to: 3
  5022                           ;mcc_generated_files/timer/src/tmr1.c: 126:     {;mcc_generated_files/timer/src/tmr1.c: 
      +                          128:         TMR1H = (uint8_t)(timerVal >> 8);
  5023   002972  5005               	movf	(Timer1_Write@timerVal+1)^(0+1280),w,c
  5024   002974  6F13               	movwf	19,b	;volatile
  5025   002976                     
  5026                           ; BSR set to: 3
  5027                           ;mcc_generated_files/timer/src/tmr1.c: 129:         TMR1L = (uint8_t)timerVal;
  5028   002976  C504  F312         	movff	Timer1_Write@timerVal,786	;volatile
  5029   00297A                     l1023:
  5030                           
  5031                           ; BSR set to: 3
  5032   00297A  0012               	return		;funcret
  5033   00297C                     __end_of_Timer1_Write:
  5034                           	callstack 0
  5035                           
  5036 ;; *************** function _ADC *****************
  5037 ;; Defined at:
  5038 ;;		line 55 in file "Labs/Lab04_AnalogToDigitalConversion/ADC.c"
  5039 ;; Parameters:    Size  Location     Type
  5040 ;;		None
  5041 ;; Auto vars:     Size  Location     Type
  5042 ;;		None
  5043 ;; Return value:  Size  Location     Type
  5044 ;;                  1    wreg      void 
  5045 ;; Registers used:
  5046 ;;		wreg, fsr1l, fsr1h, fsr2l, fsr2h, status,2, status,0, tblptrl, tblptrh, tblptru, cstack
  5047 ;; Tracked objects:
  5048 ;;		On entry : 0/0
  5049 ;;		On exit  : 0/0
  5050 ;;		Unchanged: 0/0
  5051 ;; Data sizes:     COMRAM   BANK5   BANK6   BANK7   BANK8   BANK9  BANK10  BANK11  BANK12  BANK13  BANK14  BANK15  BANK1
      +6  BANK17  BANK18  BANK19  BANK20
  5052 ;;      Params:         0       0       0       0       0       0       0       0       0       0       0       0       
      +0       0       0       0       0
  5053 ;;      Locals:         0       0       0       0       0       0       0       0       0       0       0       0       
      +0       0       0       0       0
  5054 ;;      Temps:          1       0       0       0       0       0       0       0       0       0       0       0       
      +0       0       0       0       0
  5055 ;;      Totals:         1       0       0       0       0       0       0       0       0       0       0       0       
      +0       0       0       0       0
  5056 ;;Total ram usage:        1 bytes
  5057 ;; Hardware stack levels used: 1
  5058 ;; Hardware stack levels required when called: 12
  5059 ;; This function calls:
  5060 ;;		_ADCC_GetSingleConversion
  5061 ;;		_printf
  5062 ;; This function is called by:
  5063 ;;		_main
  5064 ;; This function uses a non-reentrant model
  5065 ;;
  5066                           
  5067                           	psect	text50
  5068   001E06                     __ptext50:
  5069                           	callstack 0
  5070   001E06                     _ADC:
  5071                           	callstack 114
  5072   001E06                     
  5073                           ;Labs/Lab04_AnalogToDigitalConversion/ADC.c: 57:     if (labState == 0) {
  5074   001E06  505D               	movf	_labState^(0+1280),w,c
  5075   001E08  A4D8               	btfss	status,2,c
  5076   001E0A  EF09  F00F         	goto	u1901
  5077   001E0E  EF0B  F00F         	goto	u1900
  5078   001E12                     u1901:
  5079   001E12  EF10  F00F         	goto	l4006
  5080   001E16                     u1900:
  5081   001E16  0E00               	movlw	0
  5082   001E18  6EBE               	movwf	190,c	;volatile
  5083   001E1A  9AC0               	bcf	192,5,c	;volatile
  5084   001E1C                     
  5085                           ;Labs/Lab04_AnalogToDigitalConversion/ADC.c: 60:         labState = 1;
  5086   001E1C  0E01               	movlw	1
  5087   001E1E  6E5D               	movwf	_labState^(0+1280),c
  5088   001E20                     l4006:
  5089                           
  5090                           ;Labs/Lab04_AnalogToDigitalConversion/ADC.c: 63:     if (labState == 1) {
  5091   001E20  045D               	decf	_labState^(0+1280),w,c
  5092   001E22  A4D8               	btfss	status,2,c
  5093   001E24  EF16  F00F         	goto	u1911
  5094   001E28  EF18  F00F         	goto	u1910
  5095   001E2C                     u1911:
  5096   001E2C  EF61  F00F         	goto	l4020
  5097   001E30                     u1910:
  5098   001E30                     
  5099                           ;Labs/Lab04_AnalogToDigitalConversion/ADC.c: 65:         adcResult = ADCC_GetSingleConve
      +                          rsion(POT_CHANNEL) >> 8;
  5100   001E30  0E10               	movlw	16
  5101   001E32  EC52  F014         	call	_ADCC_GetSingleConversion
  5102   001E36  C505  F504         	movff	?_ADCC_GetSingleConversion+1,?_ADCC_GetSingleConversion
  5103   001E3A  6A05               	clrf	(?_ADCC_GetSingleConversion+1)^(0+1280),c
  5104   001E3C  5004               	movf	?_ADCC_GetSingleConversion^(0+1280),w,c
  5105   001E3E  6E59               	movwf	_adcResult^(0+1280),c
  5106   001E40                     
  5107                           ;Labs/Lab04_AnalogToDigitalConversion/ADC.c: 68:         printf("ADC Result: %d\n\r", AD
      +                          RES);
  5108   001E40  0E55               	movlw	low STR_1
  5109   001E42  6E44               	movwf	printf@fmt^(0+1280),c
  5110   001E44  0E16               	movlw	high STR_1
  5111   001E46  6E45               	movwf	(printf@fmt+1)^(0+1280),c
  5112   001E48  C3EA F546          	movff	1002,?_printf+2	;volatile
  5113   001E4C  C3EB F547          	movff	1003,?_printf+3	;volatile
  5114   001E50  ECE6  F014         	call	_printf	;wreg free
  5115   001E54                     
  5116                           ;Labs/Lab04_AnalogToDigitalConversion/ADC.c: 71:         LATAbits.LATA5 = adcResult & 1;
  5117   001E54  C559  F54A         	movff	_adcResult,??_ADC
  5118   001E58  0E01               	movlw	1
  5119   001E5A  164A               	andwf	??_ADC^(0+1280),f,c
  5120   001E5C  3A4A               	swapf	??_ADC^(0+1280),f,c
  5121   001E5E  464A               	rlncf	??_ADC^(0+1280),f,c
  5122   001E60  50BE               	movf	190,w,c	;volatile
  5123   001E62  184A               	xorwf	??_ADC^(0+1280),w,c
  5124   001E64  0BDF               	andlw	-33
  5125   001E66  184A               	xorwf	??_ADC^(0+1280),w,c
  5126   001E68  6EBE               	movwf	190,c	;volatile
  5127   001E6A                     
  5128                           ;Labs/Lab04_AnalogToDigitalConversion/ADC.c: 72:         LATAbits.LATA1 = (adcResult & 2
      +                          ) >> 1;
  5129   001E6A  C559  F54A         	movff	_adcResult,??_ADC
  5130   001E6E  90D8               	bcf	status,0,c
  5131   001E70  324A               	rrcf	??_ADC^(0+1280),f,c
  5132   001E72  0E01               	movlw	1
  5133   001E74  164A               	andwf	??_ADC^(0+1280),f,c
  5134   001E76  464A               	rlncf	??_ADC^(0+1280),f,c
  5135   001E78  50BE               	movf	190,w,c	;volatile
  5136   001E7A  184A               	xorwf	??_ADC^(0+1280),w,c
  5137   001E7C  0BFD               	andlw	-3
  5138   001E7E  184A               	xorwf	??_ADC^(0+1280),w,c
  5139   001E80  6EBE               	movwf	190,c	;volatile
  5140   001E82                     
  5141                           ;Labs/Lab04_AnalogToDigitalConversion/ADC.c: 73:         LATAbits.LATA2 = (adcResult & 4
      +                          ) >> 2;
  5142   001E82  C559  F54A         	movff	_adcResult,??_ADC
  5143   001E86  90D8               	bcf	status,0,c
  5144   001E88  324A               	rrcf	??_ADC^(0+1280),f,c
  5145   001E8A  90D8               	bcf	status,0,c
  5146   001E8C  324A               	rrcf	??_ADC^(0+1280),f,c
  5147   001E8E  0E01               	movlw	1
  5148   001E90  164A               	andwf	??_ADC^(0+1280),f,c
  5149   001E92  464A               	rlncf	??_ADC^(0+1280),f,c
  5150   001E94  464A               	rlncf	??_ADC^(0+1280),f,c
  5151   001E96  50BE               	movf	190,w,c	;volatile
  5152   001E98  184A               	xorwf	??_ADC^(0+1280),w,c
  5153   001E9A  0BFB               	andlw	-5
  5154   001E9C  184A               	xorwf	??_ADC^(0+1280),w,c
  5155   001E9E  6EBE               	movwf	190,c	;volatile
  5156   001EA0                     
  5157                           ;Labs/Lab04_AnalogToDigitalConversion/ADC.c: 74:         LATCbits.LATC5 = (adcResult & 8
      +                          ) >> 3;
  5158   001EA0  C559  F54A         	movff	_adcResult,??_ADC
  5159   001EA4  90D8               	bcf	status,0,c
  5160   001EA6  324A               	rrcf	??_ADC^(0+1280),f,c
  5161   001EA8  90D8               	bcf	status,0,c
  5162   001EAA  324A               	rrcf	??_ADC^(0+1280),f,c
  5163   001EAC  90D8               	bcf	status,0,c
  5164   001EAE  324A               	rrcf	??_ADC^(0+1280),f,c
  5165   001EB0  0E01               	movlw	1
  5166   001EB2  164A               	andwf	??_ADC^(0+1280),f,c
  5167   001EB4  3A4A               	swapf	??_ADC^(0+1280),f,c
  5168   001EB6  464A               	rlncf	??_ADC^(0+1280),f,c
  5169   001EB8  50C0               	movf	192,w,c	;volatile
  5170   001EBA  184A               	xorwf	??_ADC^(0+1280),w,c
  5171   001EBC  0BDF               	andlw	-33
  5172   001EBE  184A               	xorwf	??_ADC^(0+1280),w,c
  5173   001EC0  6EC0               	movwf	192,c	;volatile
  5174   001EC2                     l4020:
  5175                           
  5176                           ;Labs/Lab04_AnalogToDigitalConversion/ADC.c: 77:     if (switchEvent) {
  5177   001EC2  505E               	movf	_switchEvent^(0+1280),w,c
  5178   001EC4  B4D8               	btfsc	status,2,c
  5179   001EC6  EF67  F00F         	goto	u1921
  5180   001ECA  EF69  F00F         	goto	u1920
  5181   001ECE                     u1921:
  5182   001ECE  EF6B  F00F         	goto	l123
  5183   001ED2                     u1920:
  5184   001ED2                     
  5185                           ;Labs/Lab04_AnalogToDigitalConversion/ADC.c: 78:         labState = 0;
  5186   001ED2  0E00               	movlw	0
  5187   001ED4  6E5D               	movwf	_labState^(0+1280),c
  5188   001ED6                     l123:
  5189   001ED6  0012               	return		;funcret
  5190   001ED8                     __end_of_ADC:
  5191                           	callstack 0
  5192                           
  5193 ;; *************** function _printf *****************
  5194 ;; Defined at:
  5195 ;;		line 5 in file "C:\Program Files\Microchip\xc8\v2.41\pic\sources\c99\common\printf.c"
  5196 ;; Parameters:    Size  Location     Type
  5197 ;;  fmt             2   67[COMRAM] PTR const unsigned char 
  5198 ;;		 -> STR_4(17), STR_3(17), STR_2(17), STR_1(17), 
  5199 ;; Auto vars:     Size  Location     Type
  5200 ;;  ap              2   71[COMRAM] PTR void [1]
  5201 ;;		 -> ?_printf(2), 
  5202 ;;  ret             2    0        int 
  5203 ;; Return value:  Size  Location     Type
  5204 ;;                  2   67[COMRAM] int 
  5205 ;; Registers used:
  5206 ;;		wreg, fsr1l, fsr1h, fsr2l, fsr2h, status,2, status,0, tblptrl, tblptrh, tblptru, cstack
  5207 ;; Tracked objects:
  5208 ;;		On entry : 0/0
  5209 ;;		On exit  : 0/0
  5210 ;;		Unchanged: 0/0
  5211 ;; Data sizes:     COMRAM   BANK5   BANK6   BANK7   BANK8   BANK9  BANK10  BANK11  BANK12  BANK13  BANK14  BANK15  BANK1
      +6  BANK17  BANK18  BANK19  BANK20
  5212 ;;      Params:         4       0       0       0       0       0       0       0       0       0       0       0       
      +0       0       0       0       0
  5213 ;;      Locals:         2       0       0       0       0       0       0       0       0       0       0       0       
      +0       0       0       0       0
  5214 ;;      Temps:          0       0       0       0       0       0       0       0       0       0       0       0       
      +0       0       0       0       0
  5215 ;;      Totals:         6       0       0       0       0       0       0       0       0       0       0       0       
      +0       0       0       0       0
  5216 ;;Total ram usage:        6 bytes
  5217 ;; Hardware stack levels used: 1
  5218 ;; Hardware stack levels required when called: 11
  5219 ;; This function calls:
  5220 ;;		_vfprintf
  5221 ;; This function is called by:
  5222 ;;		_ADC
  5223 ;;		_VSR
  5224 ;;		_PWM
  5225 ;;		_EEPROM
  5226 ;; This function uses a non-reentrant model
  5227 ;;
  5228                           
  5229                           	psect	text51
  5230   0029CC                     __ptext51:
  5231                           	callstack 0
  5232   0029CC                     _printf:
  5233                           	callstack 114
  5234   0029CC  0E46               	movlw	low (?_printf+2)
  5235   0029CE  6E48               	movwf	printf@ap^(0+1280),c
  5236   0029D0  0E05               	movlw	high (?_printf+2)
  5237   0029D2  6E49               	movwf	(printf@ap+1)^(0+1280),c
  5238   0029D4  0E00               	movlw	0
  5239   0029D6  6E3C               	movwf	vfprintf@fp^(0+1280),c
  5240   0029D8  0E00               	movlw	0
  5241   0029DA  6E3D               	movwf	(vfprintf@fp+1)^(0+1280),c
  5242   0029DC  C544  F53E         	movff	printf@fmt,vfprintf@fmt
  5243   0029E0  C545  F53F         	movff	printf@fmt+1,vfprintf@fmt+1
  5244   0029E4  0E48               	movlw	low printf@ap
  5245   0029E6  6E40               	movwf	vfprintf@ap^(0+1280),c
  5246   0029E8  0E05               	movlw	high printf@ap
  5247   0029EA  6E41               	movwf	(vfprintf@ap+1)^(0+1280),c
  5248   0029EC  EC0E  F013         	call	_vfprintf	;wreg free
  5249   0029F0  0012               	return		;funcret
  5250   0029F2                     __end_of_printf:
  5251                           	callstack 0
  5252                           
  5253 ;; *************** function _vfprintf *****************
  5254 ;; Defined at:
  5255 ;;		line 1546 in file "C:\Program Files\Microchip\xc8\v2.41\pic\sources\c99\common\doprnt.c"
  5256 ;; Parameters:    Size  Location     Type
  5257 ;;  fp              2   59[COMRAM] PTR struct _IO_FILE
  5258 ;;		 -> NULL(0), 
  5259 ;;  fmt             2   61[COMRAM] PTR const unsigned char 
  5260 ;;		 -> STR_4(17), STR_3(17), STR_2(17), STR_1(17), 
  5261 ;;  ap              2   63[COMRAM] PTR PTR void 
  5262 ;;		 -> printf@ap(2), 
  5263 ;; Auto vars:     Size  Location     Type
  5264 ;;  cfmt            2   65[COMRAM] PTR unsigned char 
  5265 ;;		 -> STR_4(17), STR_3(17), STR_2(17), STR_1(17), 
  5266 ;; Return value:  Size  Location     Type
  5267 ;;                  2   59[COMRAM] int 
  5268 ;; Registers used:
  5269 ;;		wreg, fsr1l, fsr1h, fsr2l, fsr2h, status,2, status,0, tblptrl, tblptrh, tblptru, cstack
  5270 ;; Tracked objects:
  5271 ;;		On entry : 0/0
  5272 ;;		On exit  : 0/0
  5273 ;;		Unchanged: 0/0
  5274 ;; Data sizes:     COMRAM   BANK5   BANK6   BANK7   BANK8   BANK9  BANK10  BANK11  BANK12  BANK13  BANK14  BANK15  BANK1
      +6  BANK17  BANK18  BANK19  BANK20
  5275 ;;      Params:         6       0       0       0       0       0       0       0       0       0       0       0       
      +0       0       0       0       0
  5276 ;;      Locals:         2       0       0       0       0       0       0       0       0       0       0       0       
      +0       0       0       0       0
  5277 ;;      Temps:          0       0       0       0       0       0       0       0       0       0       0       0       
      +0       0       0       0       0
  5278 ;;      Totals:         8       0       0       0       0       0       0       0       0       0       0       0       
      +0       0       0       0       0
  5279 ;;Total ram usage:        8 bytes
  5280 ;; Hardware stack levels used: 1
  5281 ;; Hardware stack levels required when called: 10
  5282 ;; This function calls:
  5283 ;;		_vfpfcnvrt
  5284 ;; This function is called by:
  5285 ;;		_printf
  5286 ;; This function uses a non-reentrant model
  5287 ;;
  5288                           
  5289                           	psect	text52
  5290   00261C                     __ptext52:
  5291                           	callstack 0
  5292   00261C                     _vfprintf:
  5293                           	callstack 114
  5294   00261C                     
  5295                           ;C:\Program Files\Microchip\xc8\v2.41\pic\sources\c99\common\doprnt.c: 1546: int vfprint
      +                          f(FILE *fp, const char *fmt, va_list ap);C:\Program Files\Microchip\xc8\v2.41\pic\source
      +                          s\c99\common\doprnt.c: 1547: {;C:\Program Files\Microchip\xc8\v2.41\pic\sources\c99\comm
      +                          on\doprnt.c: 1549:     char *cfmt;;C:\Program Files\Microchip\xc8\v2.41\pic\sources\c99\
      +                          common\doprnt.c: 1551:     cfmt = (char *)fmt;
  5296   00261C  C53E  F542         	movff	vfprintf@fmt,vfprintf@cfmt
  5297   002620  C53F  F543         	movff	vfprintf@fmt+1,vfprintf@cfmt+1
  5298                           
  5299                           ;C:\Program Files\Microchip\xc8\v2.41\pic\sources\c99\common\doprnt.c: 1555:     while (
      +                          *cfmt) {
  5300   002624  EF22  F013         	goto	l3808
  5301   002628                     l3806:
  5302                           
  5303                           ;C:\Program Files\Microchip\xc8\v2.41\pic\sources\c99\common\doprnt.c: 1559:    vfpfcnvr
      +                          t(fp, &cfmt, ap);
  5304   002628  C53C  F52E         	movff	vfprintf@fp,vfpfcnvrt@fp
  5305   00262C  C53D  F52F         	movff	vfprintf@fp+1,vfpfcnvrt@fp+1
  5306   002630  0E42               	movlw	low vfprintf@cfmt
  5307   002632  6E30               	movwf	vfpfcnvrt@fmt^(0+1280),c
  5308   002634  0E05               	movlw	high vfprintf@cfmt
  5309   002636  6E31               	movwf	(vfpfcnvrt@fmt+1)^(0+1280),c
  5310   002638  C540  F532         	movff	vfprintf@ap,vfpfcnvrt@ap
  5311   00263C  C541  F533         	movff	vfprintf@ap+1,vfpfcnvrt@ap+1
  5312   002640  ECFE  F00B         	call	_vfpfcnvrt	;wreg free
  5313   002644                     l3808:
  5314                           
  5315                           ;C:\Program Files\Microchip\xc8\v2.41\pic\sources\c99\common\doprnt.c: 1555:     while (
      +                          *cfmt) {
  5316   002644  C542  F4F6         	movff	vfprintf@cfmt,tblptrl
  5317   002648  C543  F4F7         	movff	vfprintf@cfmt+1,tblptrh
  5318   00264C                     	if	1	;Program memory is < 0x10000, tblptru is always zero
  5319   00264C  6AF8               	clrf	tblptru,c
  5320   00264E                     	endif
  5321   00264E                     	if	0	;tblptru may be non-zero
  5322   00264E                     	endif
  5323   00264E  0008               	tblrd		*
  5324   002650  50F5               	movf	tablat,w,c
  5325   002652  0900               	iorlw	0
  5326   002654  A4D8               	btfss	status,2,c
  5327   002656  EF2F  F013         	goto	u1801
  5328   00265A  EF31  F013         	goto	u1800
  5329   00265E                     u1801:
  5330   00265E  EF14  F013         	goto	l3806
  5331   002662                     u1800:
  5332   002662                     
  5333                           ;C:\Program Files\Microchip\xc8\v2.41\pic\sources\c99\common\doprnt.c: 1564:  return 0;
  5334   002662  0E00               	movlw	0
  5335   002664  6E3D               	movwf	(?_vfprintf+1)^(0+1280),c
  5336   002666  0E00               	movlw	0
  5337   002668  6E3C               	movwf	?_vfprintf^(0+1280),c
  5338   00266A  0012               	return		;funcret
  5339   00266C                     __end_of_vfprintf:
  5340                           	callstack 0
  5341                           
  5342 ;; *************** function _vfpfcnvrt *****************
  5343 ;; Defined at:
  5344 ;;		line 1048 in file "C:\Program Files\Microchip\xc8\v2.41\pic\sources\c99\common\doprnt.c"
  5345 ;; Parameters:    Size  Location     Type
  5346 ;;  fp              2   45[COMRAM] PTR struct _IO_FILE
  5347 ;;		 -> NULL(0), 
  5348 ;;  fmt             2   47[COMRAM] PTR PTR unsigned char 
  5349 ;;		 -> vfprintf@cfmt(2), 
  5350 ;;  ap              2   49[COMRAM] PTR PTR void 
  5351 ;;		 -> printf@ap(2), 
  5352 ;; Auto vars:     Size  Location     Type
  5353 ;;  convarg         4   53[COMRAM] struct .
  5354 ;;  cp              2   57[COMRAM] PTR unsigned char 
  5355 ;;		 -> STR_4(17), STR_3(17), STR_2(17), STR_1(17), 
  5356 ;;  i               2    0        int 
  5357 ;;  done            2    0        int 
  5358 ;;  c               1    0        unsigned char 
  5359 ;; Return value:  Size  Location     Type
  5360 ;;                  1    wreg      void 
  5361 ;; Registers used:
  5362 ;;		wreg, fsr1l, fsr1h, fsr2l, fsr2h, status,2, status,0, tblptrl, tblptrh, tblptru, cstack
  5363 ;; Tracked objects:
  5364 ;;		On entry : 0/0
  5365 ;;		On exit  : 0/0
  5366 ;;		Unchanged: 0/0
  5367 ;; Data sizes:     COMRAM   BANK5   BANK6   BANK7   BANK8   BANK9  BANK10  BANK11  BANK12  BANK13  BANK14  BANK15  BANK1
      +6  BANK17  BANK18  BANK19  BANK20
  5368 ;;      Params:         6       0       0       0       0       0       0       0       0       0       0       0       
      +0       0       0       0       0
  5369 ;;      Locals:         6       0       0       0       0       0       0       0       0       0       0       0       
      +0       0       0       0       0
  5370 ;;      Temps:          2       0       0       0       0       0       0       0       0       0       0       0       
      +0       0       0       0       0
  5371 ;;      Totals:        14       0       0       0       0       0       0       0       0       0       0       0       
      +0       0       0       0       0
  5372 ;;Total ram usage:       14 bytes
  5373 ;; Hardware stack levels used: 1
  5374 ;; Hardware stack levels required when called: 9
  5375 ;; This function calls:
  5376 ;;		_dtoa
  5377 ;;		_fputc
  5378 ;; This function is called by:
  5379 ;;		_vfprintf
  5380 ;; This function uses a non-reentrant model
  5381 ;;
  5382                           
  5383                           	psect	text53
  5384   0017FC                     __ptext53:
  5385                           	callstack 0
  5386   0017FC                     _vfpfcnvrt:
  5387                           	callstack 114
  5388   0017FC                     
  5389                           ;C:\Program Files\Microchip\xc8\v2.41\pic\sources\c99\common\doprnt.c: 1048: vfpfcnvrt(F
      +                          ILE *fp, char *fmt[], va_list ap);C:\Program Files\Microchip\xc8\v2.41\pic\sources\c99\c
      +                          ommon\doprnt.c: 1049: {;C:\Program Files\Microchip\xc8\v2.41\pic\sources\c99\common\dopr
      +                          nt.c: 1050:     char c, *cp;;C:\Program Files\Microchip\xc8\v2.41\pic\sources\c99\common
      +                          \doprnt.c: 1051:     int done, i;;C:\Program Files\Microchip\xc8\v2.41\pic\sources\c99\c
      +                          ommon\doprnt.c: 1059:  } convarg;;C:\Program Files\Microchip\xc8\v2.41\pic\sources\c99\c
      +                          ommon\doprnt.c: 1062:     if ((*fmt)[0] == '%') {
  5390   0017FC  C530  F4D9         	movff	vfpfcnvrt@fmt,fsr2l
  5391   001800  C531  F4DA         	movff	vfpfcnvrt@fmt+1,fsr2h
  5392   001804  C4DE F4F6          	movff	postinc2,tblptrl
  5393   001808  C4DD F4F7          	movff	postdec2,tblptrh
  5394   00180C                     	if	1	;Program memory is < 0x10000, tblptru is always zero
  5395   00180C  6AF8               	clrf	tblptru,c
  5396   00180E                     	endif
  5397   00180E                     	if	0	;tblptru may be non-zero
  5398   00180E                     	endif
  5399   00180E  0008               	tblrd		*
  5400   001810  50F5               	movf	tablat,w,c
  5401   001812  0A25               	xorlw	37
  5402   001814  A4D8               	btfss	status,2,c
  5403   001816  EF0F  F00C         	goto	u1731
  5404   00181A  EF11  F00C         	goto	u1730
  5405   00181E                     u1731:
  5406   00181E  EF7E  F00C         	goto	l3754
  5407   001822                     u1730:
  5408   001822                     
  5409                           ;C:\Program Files\Microchip\xc8\v2.41\pic\sources\c99\common\doprnt.c: 1063:         ++*
      +                          fmt;
  5410   001822  C530  F4D9         	movff	vfpfcnvrt@fmt,fsr2l
  5411   001826  C531  F4DA         	movff	vfpfcnvrt@fmt+1,fsr2h
  5412   00182A  2ADE               	incf	postinc2,f,c
  5413   00182C  0E00               	movlw	0
  5414   00182E  22DD               	addwfc	postdec2,f,c
  5415   001830                     
  5416                           ;C:\Program Files\Microchip\xc8\v2.41\pic\sources\c99\common\doprnt.c: 1065:         fla
      +                          gs = width = 0;
  5417   001830  0E00               	movlw	0
  5418   001832  0105               	movlb	5	; () banked
  5419   001834  6F61               	movwf	(_width+1)& (0+255),b
  5420   001836  0E00               	movlw	0
  5421   001838  6F60               	movwf	_width& (0+255),b
  5422   00183A  C560  F54F         	movff	_width,_flags
  5423   00183E                     
  5424                           ; BSR set to: 5
  5425                           ;C:\Program Files\Microchip\xc8\v2.41\pic\sources\c99\common\doprnt.c: 1066:         pre
      +                          c = -1;
  5426   00183E  6962               	setf	_prec& (0+255),b
  5427   001840  6963               	setf	(_prec+1)& (0+255),b
  5428   001842                     
  5429                           ; BSR set to: 5
  5430                           ;C:\Program Files\Microchip\xc8\v2.41\pic\sources\c99\common\doprnt.c: 1143:   cp = *fmt
      +                          ;
  5431   001842  C530  F4D9         	movff	vfpfcnvrt@fmt,fsr2l
  5432   001846  C531  F4DA         	movff	vfpfcnvrt@fmt+1,fsr2h
  5433   00184A  C4DE F53A          	movff	postinc2,vfpfcnvrt@cp
  5434   00184E  C4DD F53B          	movff	postdec2,vfpfcnvrt@cp+1
  5435   001852                     
  5436                           ; BSR set to: 5
  5437                           ;C:\Program Files\Microchip\xc8\v2.41\pic\sources\c99\common\doprnt.c: 1213:   if (*cp =
      +                          = 'd' || *cp == 'i') {
  5438   001852  C53A  F4F6         	movff	vfpfcnvrt@cp,tblptrl
  5439   001856  C53B  F4F7         	movff	vfpfcnvrt@cp+1,tblptrh
  5440   00185A                     	if	1	;Program memory is < 0x10000, tblptru is always zero
  5441   00185A  6AF8               	clrf	tblptru,c
  5442   00185C                     	endif
  5443   00185C                     	if	0	;tblptru may be non-zero
  5444   00185C                     	endif
  5445   00185C  0008               	tblrd		*
  5446   00185E  50F5               	movf	tablat,w,c
  5447   001860  0A64               	xorlw	100
  5448   001862  B4D8               	btfsc	status,2,c
  5449   001864  EF36  F00C         	goto	u1741
  5450   001868  EF38  F00C         	goto	u1740
  5451   00186C                     u1741:
  5452   00186C  EF47  F00C         	goto	l3744
  5453   001870                     u1740:
  5454   001870                     
  5455                           ; BSR set to: 5
  5456   001870  C53A  F4F6         	movff	vfpfcnvrt@cp,tblptrl
  5457   001874  C53B  F4F7         	movff	vfpfcnvrt@cp+1,tblptrh
  5458   001878                     	if	1	;Program memory is < 0x10000, tblptru is always zero
  5459   001878  6AF8               	clrf	tblptru,c
  5460   00187A                     	endif
  5461   00187A                     	if	0	;tblptru may be non-zero
  5462   00187A                     	endif
  5463   00187A  0008               	tblrd		*
  5464   00187C  50F5               	movf	tablat,w,c
  5465   00187E  0A69               	xorlw	105
  5466   001880  A4D8               	btfss	status,2,c
  5467   001882  EF45  F00C         	goto	u1751
  5468   001886  EF47  F00C         	goto	u1750
  5469   00188A                     u1751:
  5470   00188A  EF75  F00C         	goto	l3750
  5471   00188E                     u1750:
  5472   00188E                     l3744:
  5473                           
  5474                           ; BSR set to: 5
  5475                           ;C:\Program Files\Microchip\xc8\v2.41\pic\sources\c99\common\doprnt.c: 1256:    convarg.
      +                          sint = (vfpf_sint_t)(int)(*(int *)__va_arg(*(int **)ap, (int)0));
  5476   00188E  C532  F4D9         	movff	vfpfcnvrt@ap,fsr2l
  5477   001892  C533  F4DA         	movff	vfpfcnvrt@ap+1,fsr2h
  5478   001896  C4DF F534          	movff	indf2,??_vfpfcnvrt
  5479   00189A  0E02               	movlw	2
  5480   00189C  26DE               	addwf	postinc2,f,c
  5481   00189E  C4DF F535          	movff	indf2,??_vfpfcnvrt+1
  5482   0018A2  0E00               	movlw	0
  5483   0018A4  22DD               	addwfc	postdec2,f,c
  5484   0018A6  C534  F4D9         	movff	??_vfpfcnvrt,fsr2l
  5485   0018AA  C535  F4DA         	movff	??_vfpfcnvrt+1,fsr2h
  5486   0018AE  C4DE F536          	movff	postinc2,vfpfcnvrt@convarg
  5487   0018B2  C4DD F537          	movff	postdec2,vfpfcnvrt@convarg+1
  5488                           
  5489                           ;C:\Program Files\Microchip\xc8\v2.41\pic\sources\c99\common\doprnt.c: 1258:    *fmt = c
      +                          p+1;
  5490   0018B6  0E01               	movlw	1
  5491   0018B8  243A               	addwf	vfpfcnvrt@cp^(0+1280),w,c
  5492   0018BA  6E34               	movwf	??_vfpfcnvrt^(0+1280),c
  5493   0018BC  0E00               	movlw	0
  5494   0018BE  203B               	addwfc	(vfpfcnvrt@cp+1)^(0+1280),w,c
  5495   0018C0  6E35               	movwf	(??_vfpfcnvrt+1)^(0+1280),c
  5496   0018C2  C530  F4D9         	movff	vfpfcnvrt@fmt,fsr2l
  5497   0018C6  C531  F4DA         	movff	vfpfcnvrt@fmt+1,fsr2h
  5498   0018CA  C534  F4DE         	movff	??_vfpfcnvrt,postinc2
  5499   0018CE  C535  F4DD         	movff	??_vfpfcnvrt+1,postdec2
  5500   0018D2                     
  5501                           ; BSR set to: 5
  5502                           ;C:\Program Files\Microchip\xc8\v2.41\pic\sources\c99\common\doprnt.c: 1259:    return (
      +                          void) dtoa(fp, convarg.sint);;	Return value of _vfpfcnvrt is never used
  5503   0018D2  C52E  F521         	movff	vfpfcnvrt@fp,dtoa@fp
  5504   0018D6  C52F  F522         	movff	vfpfcnvrt@fp+1,dtoa@fp+1
  5505   0018DA  C536  F523         	movff	vfpfcnvrt@convarg,dtoa@d
  5506   0018DE  C537  F524         	movff	vfpfcnvrt@convarg+1,dtoa@d+1
  5507   0018E2  EC34  F00B         	call	_dtoa	;wreg free
  5508   0018E6  EF93  F00C         	goto	l2211
  5509   0018EA                     l3750:
  5510                           
  5511                           ;C:\Program Files\Microchip\xc8\v2.41\pic\sources\c99\common\doprnt.c: 1535:         ++*
      +                          fmt;
  5512   0018EA  C530  F4D9         	movff	vfpfcnvrt@fmt,fsr2l
  5513   0018EE  C531  F4DA         	movff	vfpfcnvrt@fmt+1,fsr2h
  5514   0018F2  2ADE               	incf	postinc2,f,c
  5515   0018F4  0E00               	movlw	0
  5516   0018F6  22DD               	addwfc	postdec2,f,c
  5517   0018F8  EF93  F00C         	goto	l2211
  5518   0018FC                     l3754:
  5519                           
  5520                           ;C:\Program Files\Microchip\xc8\v2.41\pic\sources\c99\common\doprnt.c: 1540:     fputc((
      +                          int)(*fmt)[0], fp);
  5521   0018FC  C530  F4D9         	movff	vfpfcnvrt@fmt,fsr2l
  5522   001900  C531  F4DA         	movff	vfpfcnvrt@fmt+1,fsr2h
  5523   001904  C4DE F4F6          	movff	postinc2,tblptrl
  5524   001908  C4DD F4F7          	movff	postdec2,tblptrh
  5525   00190C                     	if	1	;Program memory is < 0x10000, tblptru is always zero
  5526   00190C  6AF8               	clrf	tblptru,c
  5527   00190E                     	endif
  5528   00190E                     	if	0	;tblptru may be non-zero
  5529   00190E                     	endif
  5530   00190E  0008               	tblrd		*
  5531   001910  50F5               	movf	tablat,w,c
  5532   001912  6E06               	movwf	fputc@c^(0+1280),c
  5533   001914  6A07               	clrf	(fputc@c+1)^(0+1280),c
  5534   001916  C52E  F508         	movff	vfpfcnvrt@fp,fputc@fp
  5535   00191A  C52F  F509         	movff	vfpfcnvrt@fp+1,fputc@fp+1
  5536   00191E  EC6C  F00F         	call	_fputc	;wreg free
  5537   001922  EF75  F00C         	goto	l3750
  5538   001926                     l2211:
  5539   001926  0012               	return		;funcret
  5540   001928                     __end_of_vfpfcnvrt:
  5541                           	callstack 0
  5542                           
  5543 ;; *************** function _dtoa *****************
  5544 ;; Defined at:
  5545 ;;		line 470 in file "C:\Program Files\Microchip\xc8\v2.41\pic\sources\c99\common\doprnt.c"
  5546 ;; Parameters:    Size  Location     Type
  5547 ;;  fp              2   32[COMRAM] PTR struct _IO_FILE
  5548 ;;		 -> NULL(0), 
  5549 ;;  d               2   34[COMRAM] int 
  5550 ;; Auto vars:     Size  Location     Type
  5551 ;;  i               2   42[COMRAM] int 
  5552 ;;  w               2   40[COMRAM] int 
  5553 ;;  p               2   38[COMRAM] int 
  5554 ;;  s               1   44[COMRAM] unsigned char 
  5555 ;; Return value:  Size  Location     Type
  5556 ;;                  1    wreg      void 
  5557 ;; Registers used:
  5558 ;;		wreg, fsr1l, fsr1h, fsr2l, fsr2h, status,2, status,0, cstack
  5559 ;; Tracked objects:
  5560 ;;		On entry : 0/0
  5561 ;;		On exit  : 0/0
  5562 ;;		Unchanged: 0/0
  5563 ;; Data sizes:     COMRAM   BANK5   BANK6   BANK7   BANK8   BANK9  BANK10  BANK11  BANK12  BANK13  BANK14  BANK15  BANK1
      +6  BANK17  BANK18  BANK19  BANK20
  5564 ;;      Params:         4       0       0       0       0       0       0       0       0       0       0       0       
      +0       0       0       0       0
  5565 ;;      Locals:         9       0       0       0       0       0       0       0       0       0       0       0       
      +0       0       0       0       0
  5566 ;;      Temps:          0       0       0       0       0       0       0       0       0       0       0       0       
      +0       0       0       0       0
  5567 ;;      Totals:        13       0       0       0       0       0       0       0       0       0       0       0       
      +0       0       0       0       0
  5568 ;;Total ram usage:       13 bytes
  5569 ;; Hardware stack levels used: 1
  5570 ;; Hardware stack levels required when called: 8
  5571 ;; This function calls:
  5572 ;;		___awdiv
  5573 ;;		___awmod
  5574 ;;		_abs
  5575 ;;		_pad
  5576 ;; This function is called by:
  5577 ;;		_vfpfcnvrt
  5578 ;; This function uses a non-reentrant model
  5579 ;;
  5580                           
  5581                           	psect	text54
  5582   001668                     __ptext54:
  5583                           	callstack 0
  5584   001668                     _dtoa:
  5585                           	callstack 114
  5586   001668                     
  5587                           ;C:\Program Files\Microchip\xc8\v2.41\pic\sources\c99\common\doprnt.c: 470: static void 
      +                          dtoa(FILE *fp, vfpf_sint_t d);C:\Program Files\Microchip\xc8\v2.41\pic\sources\c99\commo
      +                          n\doprnt.c: 471: {;C:\Program Files\Microchip\xc8\v2.41\pic\sources\c99\common\doprnt.c:
      +                           472:  char s;;C:\Program Files\Microchip\xc8\v2.41\pic\sources\c99\common\doprnt.c: 473
      +                          :     int i, p, w;;C:\Program Files\Microchip\xc8\v2.41\pic\sources\c99\common\doprnt.c:
      +                           476:     s = d < 0 ? 1 : 0;
  5588   001668  BE24               	btfsc	(dtoa@d+1)^(0+1280),7,c
  5589   00166A  EF39  F00B         	goto	u1631
  5590   00166E  EF3C  F00B         	goto	u1630
  5591   001672                     u1631:
  5592   001672  0E01               	movlw	1
  5593   001674  EF3D  F00B         	goto	u1640
  5594   001678                     u1630:
  5595   001678  0E00               	movlw	0
  5596   00167A                     u1640:
  5597   00167A  6E2D               	movwf	dtoa@s^(0+1280),c
  5598   00167C                     
  5599                           ;C:\Program Files\Microchip\xc8\v2.41\pic\sources\c99\common\doprnt.c: 477:     if (s) {
  5600   00167C  502D               	movf	dtoa@s^(0+1280),w,c
  5601   00167E  B4D8               	btfsc	status,2,c
  5602   001680  EF44  F00B         	goto	u1651
  5603   001684  EF46  F00B         	goto	u1650
  5604   001688                     u1651:
  5605   001688  EF4A  F00B         	goto	l3686
  5606   00168C                     u1650:
  5607   00168C                     
  5608                           ;C:\Program Files\Microchip\xc8\v2.41\pic\sources\c99\common\doprnt.c: 478:         d = 
      +                          -d;
  5609   00168C  6C23               	negf	dtoa@d^(0+1280),c
  5610   00168E  1E24               	comf	(dtoa@d+1)^(0+1280),f,c
  5611   001690  B0D8               	btfsc	status,0,c
  5612   001692  2A24               	incf	(dtoa@d+1)^(0+1280),f,c
  5613   001694                     l3686:
  5614                           
  5615                           ;C:\Program Files\Microchip\xc8\v2.41\pic\sources\c99\common\doprnt.c: 487:     p = (0 <
      +                          = prec) ? prec : 1;
  5616   001694  0105               	movlb	5	; () banked
  5617   001696  BF63               	btfsc	(_prec+1)& (0+255),7,b
  5618   001698  EF52  F00B         	goto	u1660
  5619   00169C  EF50  F00B         	goto	u1661
  5620   0016A0                     u1661:
  5621   0016A0  EF58  F00B         	goto	l2190
  5622   0016A4                     u1660:
  5623   0016A4                     
  5624                           ; BSR set to: 5
  5625   0016A4  0E00               	movlw	0
  5626   0016A6  6E28               	movwf	(dtoa@p+1)^(0+1280),c
  5627   0016A8  0E01               	movlw	1
  5628   0016AA  6E27               	movwf	dtoa@p^(0+1280),c
  5629   0016AC  EF5C  F00B         	goto	l2192
  5630   0016B0                     l2190:
  5631                           
  5632                           ; BSR set to: 5
  5633   0016B0  C562  F527         	movff	_prec,dtoa@p
  5634   0016B4  C563  F528         	movff	_prec+1,dtoa@p+1
  5635   0016B8                     l2192:
  5636                           
  5637                           ; BSR set to: 5
  5638                           ;C:\Program Files\Microchip\xc8\v2.41\pic\sources\c99\common\doprnt.c: 488:     w = widt
      +                          h;
  5639   0016B8  C560  F529         	movff	_width,dtoa@w
  5640   0016BC  C561  F52A         	movff	_width+1,dtoa@w+1
  5641   0016C0                     
  5642                           ; BSR set to: 5
  5643                           ;C:\Program Files\Microchip\xc8\v2.41\pic\sources\c99\common\doprnt.c: 489:     if (s
  5644   0016C0  502D               	movf	dtoa@s^(0+1280),w,c
  5645   0016C2  B4D8               	btfsc	status,2,c
  5646   0016C4  EF66  F00B         	goto	u1671
  5647   0016C8  EF68  F00B         	goto	u1670
  5648   0016CC                     u1671:
  5649   0016CC  EF7F  F00B         	goto	l2193
  5650   0016D0                     u1670:
  5651   0016D0                     
  5652                           ; BSR set to: 5
  5653                           ;C:\Program Files\Microchip\xc8\v2.41\pic\sources\c99\common\doprnt.c: 493:     ) {;C:\P
      +                          rogram Files\Microchip\xc8\v2.41\pic\sources\c99\common\doprnt.c: 494:         --w;
  5654   0016D0  0629               	decf	dtoa@w^(0+1280),f,c
  5655   0016D2  A0D8               	btfss	status,0,c
  5656   0016D4  062A               	decf	(dtoa@w+1)^(0+1280),f,c
  5657   0016D6                     
  5658                           ; BSR set to: 5
  5659                           ;C:\Program Files\Microchip\xc8\v2.41\pic\sources\c99\common\doprnt.c: 495:   s = s ? '-
      +                          ' : '+';
  5660   0016D6  502D               	movf	dtoa@s^(0+1280),w,c
  5661   0016D8  A4D8               	btfss	status,2,c
  5662   0016DA  EF71  F00B         	goto	u1681
  5663   0016DE  EF73  F00B         	goto	u1680
  5664   0016E2                     u1681:
  5665   0016E2  EF79  F00B         	goto	l3698
  5666   0016E6                     u1680:
  5667   0016E6                     
  5668                           ; BSR set to: 5
  5669   0016E6  0E00               	movlw	0
  5670   0016E8  6E26               	movwf	(_dtoa$3546+1)^(0+1280),c
  5671   0016EA  0E2B               	movlw	43
  5672   0016EC  6E25               	movwf	_dtoa$3546^(0+1280),c
  5673   0016EE  EF7D  F00B         	goto	l3700
  5674   0016F2                     l3698:
  5675                           
  5676                           ; BSR set to: 5
  5677   0016F2  0E00               	movlw	0
  5678   0016F4  6E26               	movwf	(_dtoa$3546+1)^(0+1280),c
  5679   0016F6  0E2D               	movlw	45
  5680   0016F8  6E25               	movwf	_dtoa$3546^(0+1280),c
  5681   0016FA                     l3700:
  5682                           
  5683                           ; BSR set to: 5
  5684   0016FA  C525  F52D         	movff	_dtoa$3546,dtoa@s
  5685   0016FE                     l2193:
  5686                           
  5687                           ; BSR set to: 5
  5688                           ;C:\Program Files\Microchip\xc8\v2.41\pic\sources\c99\common\doprnt.c: 505:     i = size
      +                          of(dbuf) - 1;
  5689   0016FE  0E00               	movlw	0
  5690   001700  6E2C               	movwf	(dtoa@i+1)^(0+1280),c
  5691   001702  0E1F               	movlw	31
  5692   001704  6E2B               	movwf	dtoa@i^(0+1280),c
  5693   001706                     
  5694                           ; BSR set to: 5
  5695                           ;C:\Program Files\Microchip\xc8\v2.41\pic\sources\c99\common\doprnt.c: 506:     dbuf[i] 
      +                          = '\0';
  5696   001706  0E00               	movlw	0
  5697   001708  6F97               	movwf	(_dbuf+31)& (0+255),b
  5698                           
  5699                           ;C:\Program Files\Microchip\xc8\v2.41\pic\sources\c99\common\doprnt.c: 507:     while (!
      +                          (i < 1) && (d || (0 < p)
  5700   00170A  EFB7  F00B         	goto	l3714
  5701   00170E                     l3704:
  5702                           
  5703                           ;C:\Program Files\Microchip\xc8\v2.41\pic\sources\c99\common\doprnt.c: 511:     )) {;C:\
      +                          Program Files\Microchip\xc8\v2.41\pic\sources\c99\common\doprnt.c: 512:         --i;
  5704   00170E  062B               	decf	dtoa@i^(0+1280),f,c
  5705   001710  A0D8               	btfss	status,0,c
  5706   001712  062C               	decf	(dtoa@i+1)^(0+1280),f,c
  5707   001714                     
  5708                           ;C:\Program Files\Microchip\xc8\v2.41\pic\sources\c99\common\doprnt.c: 513:         dbuf
      +                          [i] = (char)((int)'0' + abs(d % 10));
  5709   001714  0E78               	movlw	low _dbuf
  5710   001716  242B               	addwf	dtoa@i^(0+1280),w,c
  5711   001718  6ED9               	movwf	fsr2l,c
  5712   00171A  0E05               	movlw	high _dbuf
  5713   00171C  202C               	addwfc	(dtoa@i+1)^(0+1280),w,c
  5714   00171E  6EDA               	movwf	fsr2h,c
  5715   001720  C523  F504         	movff	dtoa@d,___awmod@dividend
  5716   001724  C524  F505         	movff	dtoa@d+1,___awmod@dividend+1
  5717   001728  0E00               	movlw	0
  5718   00172A  6E07               	movwf	(___awmod@divisor+1)^(0+1280),c
  5719   00172C  0E0A               	movlw	10
  5720   00172E  6E06               	movwf	___awmod@divisor^(0+1280),c
  5721   001730  EC33  F010         	call	___awmod	;wreg free
  5722   001734  C504  F50A         	movff	?___awmod,abs@a
  5723   001738  C505  F50B         	movff	?___awmod+1,abs@a+1
  5724   00173C  ECE9  F013         	call	_abs	;wreg free
  5725   001740  500A               	movf	?_abs^(0+1280),w,c
  5726   001742  0F30               	addlw	48
  5727   001744  6EDF               	movwf	indf2,c
  5728   001746                     
  5729                           ;C:\Program Files\Microchip\xc8\v2.41\pic\sources\c99\common\doprnt.c: 514:         --p;
  5730   001746  0627               	decf	dtoa@p^(0+1280),f,c
  5731   001748  A0D8               	btfss	status,0,c
  5732   00174A  0628               	decf	(dtoa@p+1)^(0+1280),f,c
  5733   00174C                     
  5734                           ;C:\Program Files\Microchip\xc8\v2.41\pic\sources\c99\common\doprnt.c: 515:         --w;
  5735   00174C  0629               	decf	dtoa@w^(0+1280),f,c
  5736   00174E  A0D8               	btfss	status,0,c
  5737   001750  062A               	decf	(dtoa@w+1)^(0+1280),f,c
  5738   001752                     
  5739                           ;C:\Program Files\Microchip\xc8\v2.41\pic\sources\c99\common\doprnt.c: 516:         d = 
      +                          d / 10;
  5740   001752  C523  F504         	movff	dtoa@d,___awdiv@dividend
  5741   001756  C524  F505         	movff	dtoa@d+1,___awdiv@dividend+1
  5742   00175A  0E00               	movlw	0
  5743   00175C  6E07               	movwf	(___awdiv@divisor+1)^(0+1280),c
  5744   00175E  0E0A               	movlw	10
  5745   001760  6E06               	movwf	___awdiv@divisor^(0+1280),c
  5746   001762  ECD1  F00F         	call	___awdiv	;wreg free
  5747   001766  C504  F523         	movff	?___awdiv,dtoa@d
  5748   00176A  C505  F524         	movff	?___awdiv+1,dtoa@d+1
  5749   00176E                     l3714:
  5750                           
  5751                           ;C:\Program Files\Microchip\xc8\v2.41\pic\sources\c99\common\doprnt.c: 507:     while (!
      +                          (i < 1) && (d || (0 < p)
  5752   00176E  BE2C               	btfsc	(dtoa@i+1)^(0+1280),7,c
  5753   001770  EFC2  F00B         	goto	u1691
  5754   001774  502C               	movf	(dtoa@i+1)^(0+1280),w,c
  5755   001776  E108               	bnz	u1690
  5756   001778  042B               	decf	dtoa@i^(0+1280),w,c
  5757   00177A  A0D8               	btfss	status,0,c
  5758   00177C  EFC2  F00B         	goto	u1691
  5759   001780  EFC4  F00B         	goto	u1690
  5760   001784                     u1691:
  5761   001784  EFDA  F00B         	goto	l3720
  5762   001788                     u1690:
  5763   001788  5023               	movf	dtoa@d^(0+1280),w,c
  5764   00178A  1024               	iorwf	(dtoa@d+1)^(0+1280),w,c
  5765   00178C  A4D8               	btfss	status,2,c
  5766   00178E  EFCB  F00B         	goto	u1701
  5767   001792  EFCD  F00B         	goto	u1700
  5768   001796                     u1701:
  5769   001796  EF87  F00B         	goto	l3704
  5770   00179A                     u1700:
  5771   00179A  BE28               	btfsc	(dtoa@p+1)^(0+1280),7,c
  5772   00179C  EFDA  F00B         	goto	u1710
  5773   0017A0  5028               	movf	(dtoa@p+1)^(0+1280),w,c
  5774   0017A2  E106               	bnz	u1711
  5775   0017A4  0427               	decf	dtoa@p^(0+1280),w,c
  5776   0017A6  B0D8               	btfsc	status,0,c
  5777   0017A8  EFD8  F00B         	goto	u1711
  5778   0017AC  EFDA  F00B         	goto	u1710
  5779   0017B0                     u1711:
  5780   0017B0  EF87  F00B         	goto	l3704
  5781   0017B4                     u1710:
  5782   0017B4                     l3720:
  5783                           
  5784                           ;C:\Program Files\Microchip\xc8\v2.41\pic\sources\c99\common\doprnt.c: 520:     if (s !=
      +                           0) {
  5785   0017B4  502D               	movf	dtoa@s^(0+1280),w,c
  5786   0017B6  B4D8               	btfsc	status,2,c
  5787   0017B8  EFE0  F00B         	goto	u1721
  5788   0017BC  EFE2  F00B         	goto	u1720
  5789   0017C0                     u1721:
  5790   0017C0  EFED  F00B         	goto	l3726
  5791   0017C4                     u1720:
  5792   0017C4                     
  5793                           ;C:\Program Files\Microchip\xc8\v2.41\pic\sources\c99\common\doprnt.c: 521:         --i;
  5794   0017C4  062B               	decf	dtoa@i^(0+1280),f,c
  5795   0017C6  A0D8               	btfss	status,0,c
  5796   0017C8  062C               	decf	(dtoa@i+1)^(0+1280),f,c
  5797   0017CA                     
  5798                           ;C:\Program Files\Microchip\xc8\v2.41\pic\sources\c99\common\doprnt.c: 522:         dbuf
      +                          [i] = s;
  5799   0017CA  0E78               	movlw	low _dbuf
  5800   0017CC  242B               	addwf	dtoa@i^(0+1280),w,c
  5801   0017CE  6ED9               	movwf	fsr2l,c
  5802   0017D0  0E05               	movlw	high _dbuf
  5803   0017D2  202C               	addwfc	(dtoa@i+1)^(0+1280),w,c
  5804   0017D4  6EDA               	movwf	fsr2h,c
  5805   0017D6  C52D  F4DF         	movff	dtoa@s,indf2
  5806   0017DA                     l3726:
  5807                           
  5808                           ;C:\Program Files\Microchip\xc8\v2.41\pic\sources\c99\common\doprnt.c: 526:     return (
      +                          void) pad(fp, &dbuf[i], w);
  5809   0017DA  C521  F516         	movff	dtoa@fp,pad@fp
  5810   0017DE  C522  F517         	movff	dtoa@fp+1,pad@fp+1
  5811   0017E2  0E78               	movlw	low _dbuf
  5812   0017E4  242B               	addwf	dtoa@i^(0+1280),w,c
  5813   0017E6  6E18               	movwf	pad@buf^(0+1280),c
  5814   0017E8  0E05               	movlw	high _dbuf
  5815   0017EA  202C               	addwfc	(dtoa@i+1)^(0+1280),w,c
  5816   0017EC  6E19               	movwf	(pad@buf+1)^(0+1280),c
  5817   0017EE  C529  F51A         	movff	dtoa@w,pad@p
  5818   0017F2  C52A  F51B         	movff	dtoa@w+1,pad@p+1
  5819   0017F6  ECE7  F011         	call	_pad	;wreg free
  5820   0017FA  0012               	return		;funcret
  5821   0017FC                     __end_of_dtoa:
  5822                           	callstack 0
  5823                           
  5824 ;; *************** function _pad *****************
  5825 ;; Defined at:
  5826 ;;		line 152 in file "C:\Program Files\Microchip\xc8\v2.41\pic\sources\c99\common\doprnt.c"
  5827 ;; Parameters:    Size  Location     Type
  5828 ;;  fp              2   21[COMRAM] PTR struct _IO_FILE
  5829 ;;		 -> NULL(0), 
  5830 ;;  buf             2   23[COMRAM] PTR unsigned char 
  5831 ;;		 -> dbuf(32), 
  5832 ;;  p               2   25[COMRAM] int 
  5833 ;; Auto vars:     Size  Location     Type
  5834 ;;  w               2   30[COMRAM] int 
  5835 ;;  i               2   28[COMRAM] int 
  5836 ;; Return value:  Size  Location     Type
  5837 ;;                  1    wreg      void 
  5838 ;; Registers used:
  5839 ;;		wreg, fsr1l, fsr1h, fsr2l, fsr2h, status,2, status,0, cstack
  5840 ;; Tracked objects:
  5841 ;;		On entry : 0/0
  5842 ;;		On exit  : 0/0
  5843 ;;		Unchanged: 0/0
  5844 ;; Data sizes:     COMRAM   BANK5   BANK6   BANK7   BANK8   BANK9  BANK10  BANK11  BANK12  BANK13  BANK14  BANK15  BANK1
      +6  BANK17  BANK18  BANK19  BANK20
  5845 ;;      Params:         6       0       0       0       0       0       0       0       0       0       0       0       
      +0       0       0       0       0
  5846 ;;      Locals:         4       0       0       0       0       0       0       0       0       0       0       0       
      +0       0       0       0       0
  5847 ;;      Temps:          1       0       0       0       0       0       0       0       0       0       0       0       
      +0       0       0       0       0
  5848 ;;      Totals:        11       0       0       0       0       0       0       0       0       0       0       0       
      +0       0       0       0       0
  5849 ;;Total ram usage:       11 bytes
  5850 ;; Hardware stack levels used: 1
  5851 ;; Hardware stack levels required when called: 7
  5852 ;; This function calls:
  5853 ;;		_fputc
  5854 ;;		_fputs
  5855 ;; This function is called by:
  5856 ;;		_dtoa
  5857 ;; This function uses a non-reentrant model
  5858 ;;
  5859                           
  5860                           	psect	text55
  5861   0023CE                     __ptext55:
  5862                           	callstack 0
  5863   0023CE                     _pad:
  5864                           	callstack 114
  5865   0023CE                     
  5866                           ;C:\Program Files\Microchip\xc8\v2.41\pic\sources\c99\common\doprnt.c: 152: static void 
      +                          pad(FILE *fp, char *buf, int p);C:\Program Files\Microchip\xc8\v2.41\pic\sources\c99\com
      +                          mon\doprnt.c: 153: {;C:\Program Files\Microchip\xc8\v2.41\pic\sources\c99\common\doprnt.
      +                          c: 154:     int i, w;;C:\Program Files\Microchip\xc8\v2.41\pic\sources\c99\common\doprnt
      +                          .c: 164:     w = (p < 0) ? 0 : p;
  5867   0023CE  BE1B               	btfsc	(pad@p+1)^(0+1280),7,c
  5868   0023D0  EFEC  F011         	goto	u1601
  5869   0023D4  EFEE  F011         	goto	u1600
  5870   0023D8                     u1601:
  5871   0023D8  EFF4  F011         	goto	l3666
  5872   0023DC                     u1600:
  5873   0023DC  C51A  F51F         	movff	pad@p,pad@w
  5874   0023E0  C51B  F520         	movff	pad@p+1,pad@w+1
  5875   0023E4  EFF8  F011         	goto	l2181
  5876   0023E8                     l3666:
  5877   0023E8  0E00               	movlw	0
  5878   0023EA  6E20               	movwf	(pad@w+1)^(0+1280),c
  5879   0023EC  0E00               	movlw	0
  5880   0023EE  6E1F               	movwf	pad@w^(0+1280),c
  5881   0023F0                     l2181:
  5882                           
  5883                           ;C:\Program Files\Microchip\xc8\v2.41\pic\sources\c99\common\doprnt.c: 165:     i = 0;
  5884   0023F0  0E00               	movlw	0
  5885   0023F2  6E1E               	movwf	(pad@i+1)^(0+1280),c
  5886   0023F4  0E00               	movlw	0
  5887   0023F6  6E1D               	movwf	pad@i^(0+1280),c
  5888                           
  5889                           ;C:\Program Files\Microchip\xc8\v2.41\pic\sources\c99\common\doprnt.c: 166:     while (i
      +                           < w) {
  5890   0023F8  EF0A  F012         	goto	l3672
  5891   0023FC                     l3668:
  5892                           
  5893                           ;C:\Program Files\Microchip\xc8\v2.41\pic\sources\c99\common\doprnt.c: 167:         fput
      +                          c(' ', fp);
  5894   0023FC  0E00               	movlw	0
  5895   0023FE  6E07               	movwf	(fputc@c+1)^(0+1280),c
  5896   002400  0E20               	movlw	32
  5897   002402  6E06               	movwf	fputc@c^(0+1280),c
  5898   002404  C516  F508         	movff	pad@fp,fputc@fp
  5899   002408  C517  F509         	movff	pad@fp+1,fputc@fp+1
  5900   00240C  EC6C  F00F         	call	_fputc	;wreg free
  5901   002410                     
  5902                           ;C:\Program Files\Microchip\xc8\v2.41\pic\sources\c99\common\doprnt.c: 168:         ++i;
  5903   002410  4A1D               	infsnz	pad@i^(0+1280),f,c
  5904   002412  2A1E               	incf	(pad@i+1)^(0+1280),f,c
  5905   002414                     l3672:
  5906                           
  5907                           ;C:\Program Files\Microchip\xc8\v2.41\pic\sources\c99\common\doprnt.c: 166:     while (i
      +                           < w) {
  5908   002414  501F               	movf	pad@w^(0+1280),w,c
  5909   002416  5C1D               	subwf	pad@i^(0+1280),w,c
  5910   002418  501E               	movf	(pad@i+1)^(0+1280),w,c
  5911   00241A  0A80               	xorlw	128
  5912   00241C  6E1C               	movwf	??_pad^(0+1280),c
  5913   00241E  5020               	movf	(pad@w+1)^(0+1280),w,c
  5914   002420  0A80               	xorlw	128
  5915   002422  581C               	subwfb	??_pad^(0+1280),w,c
  5916   002424  A0D8               	btfss	status,0,c
  5917   002426  EF17  F012         	goto	u1611
  5918   00242A  EF19  F012         	goto	u1610
  5919   00242E                     u1611:
  5920   00242E  EFFE  F011         	goto	l3668
  5921   002432                     u1610:
  5922   002432                     
  5923                           ;C:\Program Files\Microchip\xc8\v2.41\pic\sources\c99\common\doprnt.c: 175:         fput
      +                          s((const char *)buf, fp);
  5924   002432  C518  F50F         	movff	pad@buf,fputs@s
  5925   002436  C519  F510         	movff	pad@buf+1,fputs@s+1
  5926   00243A  C516  F511         	movff	pad@fp,fputs@fp
  5927   00243E  C517  F512         	movff	pad@fp+1,fputs@fp+1
  5928   002442  ECA6  F013         	call	_fputs	;wreg free
  5929   002446  0012               	return		;funcret
  5930   002448                     __end_of_pad:
  5931                           	callstack 0
  5932                           
  5933 ;; *************** function _fputs *****************
  5934 ;; Defined at:
  5935 ;;		line 8 in file "C:\Program Files\Microchip\xc8\v2.41\pic\sources\c99\common\nf_fputs.c"
  5936 ;; Parameters:    Size  Location     Type
  5937 ;;  s               2   14[COMRAM] PTR const unsigned char 
  5938 ;;		 -> dbuf(32), 
  5939 ;;  fp              2   16[COMRAM] PTR struct _IO_FILE
  5940 ;;		 -> NULL(0), 
  5941 ;; Auto vars:     Size  Location     Type
  5942 ;;  i               2   19[COMRAM] int 
  5943 ;;  c               1   18[COMRAM] unsigned char 
  5944 ;; Return value:  Size  Location     Type
  5945 ;;                  2   14[COMRAM] int 
  5946 ;; Registers used:
  5947 ;;		wreg, fsr1l, fsr1h, fsr2l, fsr2h, status,2, status,0, cstack
  5948 ;; Tracked objects:
  5949 ;;		On entry : 0/0
  5950 ;;		On exit  : 0/0
  5951 ;;		Unchanged: 0/0
  5952 ;; Data sizes:     COMRAM   BANK5   BANK6   BANK7   BANK8   BANK9  BANK10  BANK11  BANK12  BANK13  BANK14  BANK15  BANK1
      +6  BANK17  BANK18  BANK19  BANK20
  5953 ;;      Params:         4       0       0       0       0       0       0       0       0       0       0       0       
      +0       0       0       0       0
  5954 ;;      Locals:         3       0       0       0       0       0       0       0       0       0       0       0       
      +0       0       0       0       0
  5955 ;;      Temps:          0       0       0       0       0       0       0       0       0       0       0       0       
      +0       0       0       0       0
  5956 ;;      Totals:         7       0       0       0       0       0       0       0       0       0       0       0       
      +0       0       0       0       0
  5957 ;;Total ram usage:        7 bytes
  5958 ;; Hardware stack levels used: 1
  5959 ;; Hardware stack levels required when called: 6
  5960 ;; This function calls:
  5961 ;;		_fputc
  5962 ;; This function is called by:
  5963 ;;		_pad
  5964 ;; This function uses a non-reentrant model
  5965 ;;
  5966                           
  5967                           	psect	text56
  5968   00274C                     __ptext56:
  5969                           	callstack 0
  5970   00274C                     _fputs:
  5971                           	callstack 114
  5972   00274C  0E00               	movlw	0
  5973   00274E  6E15               	movwf	(fputs@i+1)^(0+1280),c
  5974   002750  0E00               	movlw	0
  5975   002752  6E14               	movwf	fputs@i^(0+1280),c
  5976   002754  EFB7  F013         	goto	l3580
  5977   002758                     l3576:
  5978   002758  C513  F506         	movff	fputs@c,fputc@c
  5979   00275C  6A07               	clrf	(fputc@c+1)^(0+1280),c
  5980   00275E  C511  F508         	movff	fputs@fp,fputc@fp
  5981   002762  C512  F509         	movff	fputs@fp+1,fputc@fp+1
  5982   002766  EC6C  F00F         	call	_fputc	;wreg free
  5983   00276A  4A14               	infsnz	fputs@i^(0+1280),f,c
  5984   00276C  2A15               	incf	(fputs@i+1)^(0+1280),f,c
  5985   00276E                     l3580:
  5986   00276E  5014               	movf	fputs@i^(0+1280),w,c
  5987   002770  240F               	addwf	fputs@s^(0+1280),w,c
  5988   002772  6ED9               	movwf	fsr2l,c
  5989   002774  5015               	movf	(fputs@i+1)^(0+1280),w,c
  5990   002776  2010               	addwfc	(fputs@s+1)^(0+1280),w,c
  5991   002778  6EDA               	movwf	fsr2h,c
  5992   00277A  50DF               	movf	indf2,w,c
  5993   00277C  6E13               	movwf	fputs@c^(0+1280),c
  5994   00277E  5013               	movf	fputs@c^(0+1280),w,c
  5995   002780  A4D8               	btfss	status,2,c
  5996   002782  EFC5  F013         	goto	u1471
  5997   002786  EFC7  F013         	goto	u1470
  5998   00278A                     u1471:
  5999   00278A  EFAC  F013         	goto	l3576
  6000   00278E                     u1470:
  6001   00278E  0012               	return		;funcret
  6002   002790                     __end_of_fputs:
  6003                           	callstack 0
  6004                           
  6005 ;; *************** function _fputc *****************
  6006 ;; Defined at:
  6007 ;;		line 8 in file "C:\Program Files\Microchip\xc8\v2.41\pic\sources\c99\common\nf_fputc.c"
  6008 ;; Parameters:    Size  Location     Type
  6009 ;;  c               2    5[COMRAM] int 
  6010 ;;  fp              2    7[COMRAM] PTR struct _IO_FILE
  6011 ;;		 -> NULL(0), 
  6012 ;; Auto vars:     Size  Location     Type
  6013 ;;		None
  6014 ;; Return value:  Size  Location     Type
  6015 ;;                  2    5[COMRAM] int 
  6016 ;; Registers used:
  6017 ;;		wreg, fsr1l, fsr1h, fsr2l, fsr2h, status,2, status,0, cstack
  6018 ;; Tracked objects:
  6019 ;;		On entry : 0/0
  6020 ;;		On exit  : 0/0
  6021 ;;		Unchanged: 0/0
  6022 ;; Data sizes:     COMRAM   BANK5   BANK6   BANK7   BANK8   BANK9  BANK10  BANK11  BANK12  BANK13  BANK14  BANK15  BANK1
      +6  BANK17  BANK18  BANK19  BANK20
  6023 ;;      Params:         4       0       0       0       0       0       0       0       0       0       0       0       
      +0       0       0       0       0
  6024 ;;      Locals:         0       0       0       0       0       0       0       0       0       0       0       0       
      +0       0       0       0       0
  6025 ;;      Temps:          5       0       0       0       0       0       0       0       0       0       0       0       
      +0       0       0       0       0
  6026 ;;      Totals:         9       0       0       0       0       0       0       0       0       0       0       0       
      +0       0       0       0       0
  6027 ;;Total ram usage:        9 bytes
  6028 ;; Hardware stack levels used: 1
  6029 ;; Hardware stack levels required when called: 5
  6030 ;; This function calls:
  6031 ;;		_putch
  6032 ;; This function is called by:
  6033 ;;		_pad
  6034 ;;		_vfpfcnvrt
  6035 ;;		_fputs
  6036 ;; This function uses a non-reentrant model
  6037 ;;
  6038                           
  6039                           	psect	text57
  6040   001ED8                     __ptext57:
  6041                           	callstack 0
  6042   001ED8                     _fputc:
  6043                           	callstack 117
  6044   001ED8  5008               	movf	fputc@fp^(0+1280),w,c
  6045   001EDA  1009               	iorwf	(fputc@fp+1)^(0+1280),w,c
  6046   001EDC  B4D8               	btfsc	status,2,c
  6047   001EDE  EF73  F00F         	goto	u1431
  6048   001EE2  EF75  F00F         	goto	u1430
  6049   001EE6                     u1431:
  6050   001EE6  EF7E  F00F         	goto	l3564
  6051   001EEA                     u1430:
  6052   001EEA  5008               	movf	fputc@fp^(0+1280),w,c
  6053   001EEC  1009               	iorwf	(fputc@fp+1)^(0+1280),w,c
  6054   001EEE  A4D8               	btfss	status,2,c
  6055   001EF0  EF7C  F00F         	goto	u1441
  6056   001EF4  EF7E  F00F         	goto	u1440
  6057   001EF8                     u1441:
  6058   001EF8  EF83  F00F         	goto	l3566
  6059   001EFC                     u1440:
  6060   001EFC                     l3564:
  6061   001EFC  5006               	movf	fputc@c^(0+1280),w,c
  6062   001EFE  ECF9  F014         	call	_putch
  6063   001F02  EFD0  F00F         	goto	l2236
  6064   001F06                     l3566:
  6065   001F06  EE20 F00A          	lfsr	2,10
  6066   001F0A  5008               	movf	fputc@fp^(0+1280),w,c
  6067   001F0C  26D9               	addwf	fsr2l,f,c
  6068   001F0E  5009               	movf	(fputc@fp+1)^(0+1280),w,c
  6069   001F10  22DA               	addwfc	fsr2h,f,c
  6070   001F12  50DE               	movf	postinc2,w,c
  6071   001F14  10DE               	iorwf	postinc2,w,c
  6072   001F16  B4D8               	btfsc	status,2,c
  6073   001F18  EF90  F00F         	goto	u1451
  6074   001F1C  EF92  F00F         	goto	u1450
  6075   001F20                     u1451:
  6076   001F20  EFAD  F00F         	goto	l3570
  6077   001F24                     u1450:
  6078   001F24  EE20 F00A          	lfsr	2,10
  6079   001F28  5008               	movf	fputc@fp^(0+1280),w,c
  6080   001F2A  26D9               	addwf	fsr2l,f,c
  6081   001F2C  5009               	movf	(fputc@fp+1)^(0+1280),w,c
  6082   001F2E  22DA               	addwfc	fsr2h,f,c
  6083   001F30  EE10 F003          	lfsr	1,3
  6084   001F34  5008               	movf	fputc@fp^(0+1280),w,c
  6085   001F36  26E1               	addwf	fsr1l,f,c
  6086   001F38  5009               	movf	(fputc@fp+1)^(0+1280),w,c
  6087   001F3A  22E2               	addwfc	fsr1h,f,c
  6088   001F3C  50DE               	movf	postinc2,w,c
  6089   001F3E  5CE6               	subwf	postinc1,w,c
  6090   001F40  50E6               	movf	postinc1,w,c
  6091   001F42  0A80               	xorlw	128
  6092   001F44  6E0E               	movwf	(??_fputc+4)^(0+1280),c
  6093   001F46  50DE               	movf	postinc2,w,c
  6094   001F48  0A80               	xorlw	128
  6095   001F4A  580E               	subwfb	(??_fputc+4)^(0+1280),w,c
  6096   001F4C  B0D8               	btfsc	status,0,c
  6097   001F4E  EFAB  F00F         	goto	u1461
  6098   001F52  EFAD  F00F         	goto	u1460
  6099   001F56                     u1461:
  6100   001F56  EFD0  F00F         	goto	l2236
  6101   001F5A                     u1460:
  6102   001F5A                     l3570:
  6103   001F5A  EE20 F003          	lfsr	2,3
  6104   001F5E  5008               	movf	fputc@fp^(0+1280),w,c
  6105   001F60  26D9               	addwf	fsr2l,f,c
  6106   001F62  5009               	movf	(fputc@fp+1)^(0+1280),w,c
  6107   001F64  22DA               	addwfc	fsr2h,f,c
  6108   001F66  C4DE F50A          	movff	postinc2,??_fputc
  6109   001F6A  C4DD F50B          	movff	postdec2,??_fputc+1
  6110   001F6E  C508  F4D9         	movff	fputc@fp,fsr2l
  6111   001F72  C509  F4DA         	movff	fputc@fp+1,fsr2h
  6112   001F76  C4DE F50C          	movff	postinc2,??_fputc+2
  6113   001F7A  C4DD F50D          	movff	postdec2,??_fputc+3
  6114   001F7E  500A               	movf	??_fputc^(0+1280),w,c
  6115   001F80  240C               	addwf	(??_fputc+2)^(0+1280),w,c
  6116   001F82  6ED9               	movwf	fsr2l,c
  6117   001F84  500B               	movf	(??_fputc+1)^(0+1280),w,c
  6118   001F86  200D               	addwfc	(??_fputc+3)^(0+1280),w,c
  6119   001F88  6EDA               	movwf	fsr2h,c
  6120   001F8A  C506  F4DF         	movff	fputc@c,indf2
  6121   001F8E  EE20 F003          	lfsr	2,3
  6122   001F92  5008               	movf	fputc@fp^(0+1280),w,c
  6123   001F94  26D9               	addwf	fsr2l,f,c
  6124   001F96  5009               	movf	(fputc@fp+1)^(0+1280),w,c
  6125   001F98  22DA               	addwfc	fsr2h,f,c
  6126   001F9A  2ADE               	incf	postinc2,f,c
  6127   001F9C  0E00               	movlw	0
  6128   001F9E  22DD               	addwfc	postdec2,f,c
  6129   001FA0                     l2236:
  6130   001FA0  0012               	return		;funcret
  6131   001FA2                     __end_of_fputc:
  6132                           	callstack 0
  6133                           
  6134 ;; *************** function _putch *****************
  6135 ;; Defined at:
  6136 ;;		line 299 in file "mcc_generated_files/uart/src/uart1.c"
  6137 ;; Parameters:    Size  Location     Type
  6138 ;;  txData          1    wreg     unsigned char 
  6139 ;; Auto vars:     Size  Location     Type
  6140 ;;  txData          1    4[COMRAM] unsigned char 
  6141 ;; Return value:  Size  Location     Type
  6142 ;;                  1    wreg      void 
  6143 ;; Registers used:
  6144 ;;		wreg, status,2, cstack
  6145 ;; Tracked objects:
  6146 ;;		On entry : 0/0
  6147 ;;		On exit  : 0/0
  6148 ;;		Unchanged: 0/0
  6149 ;; Data sizes:     COMRAM   BANK5   BANK6   BANK7   BANK8   BANK9  BANK10  BANK11  BANK12  BANK13  BANK14  BANK15  BANK1
      +6  BANK17  BANK18  BANK19  BANK20
  6150 ;;      Params:         0       0       0       0       0       0       0       0       0       0       0       0       
      +0       0       0       0       0
  6151 ;;      Locals:         1       0       0       0       0       0       0       0       0       0       0       0       
      +0       0       0       0       0
  6152 ;;      Temps:          0       0       0       0       0       0       0       0       0       0       0       0       
      +0       0       0       0       0
  6153 ;;      Totals:         1       0       0       0       0       0       0       0       0       0       0       0       
      +0       0       0       0       0
  6154 ;;Total ram usage:        1 bytes
  6155 ;; Hardware stack levels used: 1
  6156 ;; Hardware stack levels required when called: 4
  6157 ;; This function calls:
  6158 ;;		_UART1_IsTxReady
  6159 ;;		_UART1_Write
  6160 ;; This function is called by:
  6161 ;;		_fputc
  6162 ;; This function uses a non-reentrant model
  6163 ;;
  6164                           
  6165                           	psect	text58
  6166   0029F2                     __ptext58:
  6167                           	callstack 0
  6168   0029F2                     _putch:
  6169                           	callstack 117
  6170                           
  6171                           ;incstack = 0
  6172                           ;putch@txData stored from wreg
  6173   0029F2  6E05               	movwf	putch@txData^(0+1280),c
  6174   0029F4                     l3554:
  6175   0029F4  ECBE  F014         	call	_UART1_IsTxReady	;wreg free
  6176   0029F8  0900               	iorlw	0
  6177   0029FA  B4D8               	btfsc	status,2,c
  6178   0029FC  EF02  F015         	goto	u1421
  6179   002A00  EF04  F015         	goto	u1420
  6180   002A04                     u1421:
  6181   002A04  EFFA  F014         	goto	l3554
  6182   002A08                     u1420:
  6183   002A08                     
  6184                           ;mcc_generated_files/uart/src/uart1.c: 302:     return UART1_Write(txData);;	Return valu
      +                          e of _putch is never used
  6185   002A08  5005               	movf	putch@txData^(0+1280),w,c
  6186   002A0A  EC91  F015         	call	_UART1_Write
  6187   002A0E  0012               	return		;funcret
  6188   002A10                     __end_of_putch:
  6189                           	callstack 0
  6190                           
  6191 ;; *************** function _UART1_Write *****************
  6192 ;; Defined at:
  6193 ;;		line 287 in file "mcc_generated_files/uart/src/uart1.c"
  6194 ;; Parameters:    Size  Location     Type
  6195 ;;  txData          1    wreg     unsigned char 
  6196 ;; Auto vars:     Size  Location     Type
  6197 ;;  txData          1    3[COMRAM] unsigned char 
  6198 ;; Return value:  Size  Location     Type
  6199 ;;                  1    wreg      void 
  6200 ;; Registers used:
  6201 ;;		wreg
  6202 ;; Tracked objects:
  6203 ;;		On entry : 0/0
  6204 ;;		On exit  : 0/0
  6205 ;;		Unchanged: 0/0
  6206 ;; Data sizes:     COMRAM   BANK5   BANK6   BANK7   BANK8   BANK9  BANK10  BANK11  BANK12  BANK13  BANK14  BANK15  BANK1
      +6  BANK17  BANK18  BANK19  BANK20
  6207 ;;      Params:         0       0       0       0       0       0       0       0       0       0       0       0       
      +0       0       0       0       0
  6208 ;;      Locals:         1       0       0       0       0       0       0       0       0       0       0       0       
      +0       0       0       0       0
  6209 ;;      Temps:          0       0       0       0       0       0       0       0       0       0       0       0       
      +0       0       0       0       0
  6210 ;;      Totals:         1       0       0       0       0       0       0       0       0       0       0       0       
      +0       0       0       0       0
  6211 ;;Total ram usage:        1 bytes
  6212 ;; Hardware stack levels used: 1
  6213 ;; Hardware stack levels required when called: 3
  6214 ;; This function calls:
  6215 ;;		Nothing
  6216 ;; This function is called by:
  6217 ;;		_putch
  6218 ;; This function uses a non-reentrant model
  6219 ;;
  6220                           
  6221                           	psect	text59
  6222   002B22                     __ptext59:
  6223                           	callstack 0
  6224   002B22                     _UART1_Write:
  6225                           	callstack 117
  6226                           
  6227                           ;incstack = 0
  6228                           ;UART1_Write@txData stored from wreg
  6229   002B22  6E04               	movwf	UART1_Write@txData^(0+1280),c
  6230   002B24                     
  6231                           ;mcc_generated_files/uart/src/uart1.c: 287: void UART1_Write(uint8_t txData);mcc_generat
      +                          ed_files/uart/src/uart1.c: 288: {;mcc_generated_files/uart/src/uart1.c: 289:     U1TXB =
      +                           txData;
  6232   002B24  C504  F2A3         	movff	UART1_Write@txData,675	;volatile
  6233   002B28  0012               	return		;funcret
  6234   002B2A                     __end_of_UART1_Write:
  6235                           	callstack 0
  6236                           
  6237 ;; *************** function _UART1_IsTxReady *****************
  6238 ;; Defined at:
  6239 ;;		line 247 in file "mcc_generated_files/uart/src/uart1.c"
  6240 ;; Parameters:    Size  Location     Type
  6241 ;;		None
  6242 ;; Auto vars:     Size  Location     Type
  6243 ;;		None
  6244 ;; Return value:  Size  Location     Type
  6245 ;;                  1    wreg      _Bool 
  6246 ;; Registers used:
  6247 ;;		wreg, status,2
  6248 ;; Tracked objects:
  6249 ;;		On entry : 0/0
  6250 ;;		On exit  : 0/0
  6251 ;;		Unchanged: 0/0
  6252 ;; Data sizes:     COMRAM   BANK5   BANK6   BANK7   BANK8   BANK9  BANK10  BANK11  BANK12  BANK13  BANK14  BANK15  BANK1
      +6  BANK17  BANK18  BANK19  BANK20
  6253 ;;      Params:         0       0       0       0       0       0       0       0       0       0       0       0       
      +0       0       0       0       0
  6254 ;;      Locals:         1       0       0       0       0       0       0       0       0       0       0       0       
      +0       0       0       0       0
  6255 ;;      Temps:          0       0       0       0       0       0       0       0       0       0       0       0       
      +0       0       0       0       0
  6256 ;;      Totals:         1       0       0       0       0       0       0       0       0       0       0       0       
      +0       0       0       0       0
  6257 ;;Total ram usage:        1 bytes
  6258 ;; Hardware stack levels used: 1
  6259 ;; Hardware stack levels required when called: 3
  6260 ;; This function calls:
  6261 ;;		Nothing
  6262 ;; This function is called by:
  6263 ;;		_putch
  6264 ;; This function uses a non-reentrant model
  6265 ;;
  6266                           
  6267                           	psect	text60
  6268   00297C                     __ptext60:
  6269                           	callstack 0
  6270   00297C                     _UART1_IsTxReady:
  6271                           	callstack 117
  6272   00297C                     
  6273                           ;mcc_generated_files/uart/src/uart1.c: 249:     return (_Bool)(U1FIFObits.TXBE && U1CON0
      +                          bits.TXEN);
  6274   00297C  0E00               	movlw	0
  6275   00297E  6E04               	movwf	_UART1_IsTxReady$2941^(0+1280),c
  6276   002980  0102               	movlb	2	; () banked
  6277   002982  ABB0               	btfss	176,5,b	;volatile
  6278   002984  EFC6  F014         	goto	u1401
  6279   002988  EFC8  F014         	goto	u1400
  6280   00298C                     u1401:
  6281   00298C  EFD1  F014         	goto	l1350
  6282   002990                     u1400:
  6283   002990                     
  6284                           ; BSR set to: 2
  6285   002990  ABAB               	btfss	171,5,b	;volatile
  6286   002992  EFCD  F014         	goto	u1411
  6287   002996  EFCF  F014         	goto	u1410
  6288   00299A                     u1411:
  6289   00299A  EFD1  F014         	goto	l1350
  6290   00299E                     u1410:
  6291   00299E                     
  6292                           ; BSR set to: 2
  6293   00299E  0E01               	movlw	1
  6294   0029A0  6E04               	movwf	_UART1_IsTxReady$2941^(0+1280),c
  6295   0029A2                     l1350:
  6296                           
  6297                           ; BSR set to: 2
  6298   0029A2  5004               	movf	_UART1_IsTxReady$2941^(0+1280),w,c
  6299   0029A4                     
  6300                           ; BSR set to: 2
  6301   0029A4  0012               	return		;funcret
  6302   0029A6                     __end_of_UART1_IsTxReady:
  6303                           	callstack 0
  6304                           
  6305 ;; *************** function _abs *****************
  6306 ;; Defined at:
  6307 ;;		line 1 in file "C:\Program Files\Microchip\xc8\v2.41\pic\sources\c99\common\abs.c"
  6308 ;; Parameters:    Size  Location     Type
  6309 ;;  a               2    9[COMRAM] int 
  6310 ;; Auto vars:     Size  Location     Type
  6311 ;;		None
  6312 ;; Return value:  Size  Location     Type
  6313 ;;                  2    9[COMRAM] int 
  6314 ;; Registers used:
  6315 ;;		wreg, status,2, status,0
  6316 ;; Tracked objects:
  6317 ;;		On entry : 0/0
  6318 ;;		On exit  : 0/0
  6319 ;;		Unchanged: 0/0
  6320 ;; Data sizes:     COMRAM   BANK5   BANK6   BANK7   BANK8   BANK9  BANK10  BANK11  BANK12  BANK13  BANK14  BANK15  BANK1
      +6  BANK17  BANK18  BANK19  BANK20
  6321 ;;      Params:         2       0       0       0       0       0       0       0       0       0       0       0       
      +0       0       0       0       0
  6322 ;;      Locals:         0       0       0       0       0       0       0       0       0       0       0       0       
      +0       0       0       0       0
  6323 ;;      Temps:          2       0       0       0       0       0       0       0       0       0       0       0       
      +0       0       0       0       0
  6324 ;;      Totals:         4       0       0       0       0       0       0       0       0       0       0       0       
      +0       0       0       0       0
  6325 ;;Total ram usage:        4 bytes
  6326 ;; Hardware stack levels used: 1
  6327 ;; Hardware stack levels required when called: 3
  6328 ;; This function calls:
  6329 ;;		Nothing
  6330 ;; This function is called by:
  6331 ;;		_dtoa
  6332 ;; This function uses a non-reentrant model
  6333 ;;
  6334                           
  6335                           	psect	text61
  6336   0027D2                     __ptext61:
  6337                           	callstack 0
  6338   0027D2                     _abs:
  6339                           	callstack 118
  6340   0027D2  BE0B               	btfsc	(abs@a+1)^(0+1280),7,c
  6341   0027D4  EFF6  F013         	goto	u1620
  6342   0027D8  500B               	movf	(abs@a+1)^(0+1280),w,c
  6343   0027DA  E106               	bnz	u1621
  6344   0027DC  040A               	decf	abs@a^(0+1280),w,c
  6345   0027DE  B0D8               	btfsc	status,0,c
  6346   0027E0  EFF4  F013         	goto	u1621
  6347   0027E4  EFF6  F013         	goto	u1620
  6348   0027E8                     u1621:
  6349   0027E8  EF04  F014         	goto	l2221
  6350   0027EC                     u1620:
  6351   0027EC  C50A  F50C         	movff	abs@a,??_abs
  6352   0027F0  C50B  F50D         	movff	abs@a+1,??_abs+1
  6353   0027F4  1E0C               	comf	??_abs^(0+1280),f,c
  6354   0027F6  1E0D               	comf	(??_abs+1)^(0+1280),f,c
  6355   0027F8  4A0C               	infsnz	??_abs^(0+1280),f,c
  6356   0027FA  2A0D               	incf	(??_abs+1)^(0+1280),f,c
  6357   0027FC  C50C  F50A         	movff	??_abs,?_abs
  6358   002800  C50D  F50B         	movff	??_abs+1,?_abs+1
  6359   002804  EF08  F014         	goto	l2224
  6360   002808                     l2221:
  6361   002808  C50A  F50A         	movff	abs@a,?_abs
  6362   00280C  C50B  F50B         	movff	abs@a+1,?_abs+1
  6363   002810                     l2224:
  6364   002810  0012               	return		;funcret
  6365   002812                     __end_of_abs:
  6366                           	callstack 0
  6367                           
  6368 ;; *************** function ___awmod *****************
  6369 ;; Defined at:
  6370 ;;		line 7 in file "C:\Program Files\Microchip\xc8\v2.41\pic\sources\c99\common\awmod.c"
  6371 ;; Parameters:    Size  Location     Type
  6372 ;;  dividend        2    3[COMRAM] int 
  6373 ;;  divisor         2    5[COMRAM] int 
  6374 ;; Auto vars:     Size  Location     Type
  6375 ;;  sign            1    8[COMRAM] unsigned char 
  6376 ;;  counter         1    7[COMRAM] unsigned char 
  6377 ;; Return value:  Size  Location     Type
  6378 ;;                  2    3[COMRAM] int 
  6379 ;; Registers used:
  6380 ;;		wreg, status,2, status,0
  6381 ;; Tracked objects:
  6382 ;;		On entry : 0/0
  6383 ;;		On exit  : 0/0
  6384 ;;		Unchanged: 0/0
  6385 ;; Data sizes:     COMRAM   BANK5   BANK6   BANK7   BANK8   BANK9  BANK10  BANK11  BANK12  BANK13  BANK14  BANK15  BANK1
      +6  BANK17  BANK18  BANK19  BANK20
  6386 ;;      Params:         4       0       0       0       0       0       0       0       0       0       0       0       
      +0       0       0       0       0
  6387 ;;      Locals:         2       0       0       0       0       0       0       0       0       0       0       0       
      +0       0       0       0       0
  6388 ;;      Temps:          0       0       0       0       0       0       0       0       0       0       0       0       
      +0       0       0       0       0
  6389 ;;      Totals:         6       0       0       0       0       0       0       0       0       0       0       0       
      +0       0       0       0       0
  6390 ;;Total ram usage:        6 bytes
  6391 ;; Hardware stack levels used: 1
  6392 ;; Hardware stack levels required when called: 3
  6393 ;; This function calls:
  6394 ;;		Nothing
  6395 ;; This function is called by:
  6396 ;;		_dtoa
  6397 ;; This function uses a non-reentrant model
  6398 ;;
  6399                           
  6400                           	psect	text62
  6401   002066                     __ptext62:
  6402                           	callstack 0
  6403   002066                     ___awmod:
  6404                           	callstack 118
  6405   002066  0E00               	movlw	0
  6406   002068  6E09               	movwf	___awmod@sign^(0+1280),c
  6407   00206A  BE05               	btfsc	(___awmod@dividend+1)^(0+1280),7,c
  6408   00206C  EF3C  F010         	goto	u1540
  6409   002070  EF3A  F010         	goto	u1541
  6410   002074                     u1541:
  6411   002074  EF42  F010         	goto	l3634
  6412   002078                     u1540:
  6413   002078  6C04               	negf	___awmod@dividend^(0+1280),c
  6414   00207A  1E05               	comf	(___awmod@dividend+1)^(0+1280),f,c
  6415   00207C  B0D8               	btfsc	status,0,c
  6416   00207E  2A05               	incf	(___awmod@dividend+1)^(0+1280),f,c
  6417   002080  0E01               	movlw	1
  6418   002082  6E09               	movwf	___awmod@sign^(0+1280),c
  6419   002084                     l3634:
  6420   002084  BE07               	btfsc	(___awmod@divisor+1)^(0+1280),7,c
  6421   002086  EF49  F010         	goto	u1550
  6422   00208A  EF47  F010         	goto	u1551
  6423   00208E                     u1551:
  6424   00208E  EF4D  F010         	goto	l3638
  6425   002092                     u1550:
  6426   002092  6C06               	negf	___awmod@divisor^(0+1280),c
  6427   002094  1E07               	comf	(___awmod@divisor+1)^(0+1280),f,c
  6428   002096  B0D8               	btfsc	status,0,c
  6429   002098  2A07               	incf	(___awmod@divisor+1)^(0+1280),f,c
  6430   00209A                     l3638:
  6431   00209A  5006               	movf	___awmod@divisor^(0+1280),w,c
  6432   00209C  1007               	iorwf	(___awmod@divisor+1)^(0+1280),w,c
  6433   00209E  B4D8               	btfsc	status,2,c
  6434   0020A0  EF54  F010         	goto	u1561
  6435   0020A4  EF56  F010         	goto	u1560
  6436   0020A8                     u1561:
  6437   0020A8  EF7A  F010         	goto	l3654
  6438   0020AC                     u1560:
  6439   0020AC  0E01               	movlw	1
  6440   0020AE  6E08               	movwf	___awmod@counter^(0+1280),c
  6441   0020B0  EF5E  F010         	goto	l3644
  6442   0020B4                     l3642:
  6443   0020B4  90D8               	bcf	status,0,c
  6444   0020B6  3606               	rlcf	___awmod@divisor^(0+1280),f,c
  6445   0020B8  3607               	rlcf	(___awmod@divisor+1)^(0+1280),f,c
  6446   0020BA  2A08               	incf	___awmod@counter^(0+1280),f,c
  6447   0020BC                     l3644:
  6448   0020BC  AE07               	btfss	(___awmod@divisor+1)^(0+1280),7,c
  6449   0020BE  EF63  F010         	goto	u1571
  6450   0020C2  EF65  F010         	goto	u1570
  6451   0020C6                     u1571:
  6452   0020C6  EF5A  F010         	goto	l3642
  6453   0020CA                     u1570:
  6454   0020CA                     l3646:
  6455   0020CA  5006               	movf	___awmod@divisor^(0+1280),w,c
  6456   0020CC  5C04               	subwf	___awmod@dividend^(0+1280),w,c
  6457   0020CE  5007               	movf	(___awmod@divisor+1)^(0+1280),w,c
  6458   0020D0  5805               	subwfb	(___awmod@dividend+1)^(0+1280),w,c
  6459   0020D2  A0D8               	btfss	status,0,c
  6460   0020D4  EF6E  F010         	goto	u1581
  6461   0020D8  EF70  F010         	goto	u1580
  6462   0020DC                     u1581:
  6463   0020DC  EF74  F010         	goto	l3650
  6464   0020E0                     u1580:
  6465   0020E0  5006               	movf	___awmod@divisor^(0+1280),w,c
  6466   0020E2  5E04               	subwf	___awmod@dividend^(0+1280),f,c
  6467   0020E4  5007               	movf	(___awmod@divisor+1)^(0+1280),w,c
  6468   0020E6  5A05               	subwfb	(___awmod@dividend+1)^(0+1280),f,c
  6469   0020E8                     l3650:
  6470   0020E8  90D8               	bcf	status,0,c
  6471   0020EA  3207               	rrcf	(___awmod@divisor+1)^(0+1280),f,c
  6472   0020EC  3206               	rrcf	___awmod@divisor^(0+1280),f,c
  6473   0020EE  2E08               	decfsz	___awmod@counter^(0+1280),f,c
  6474   0020F0  EF65  F010         	goto	l3646
  6475   0020F4                     l3654:
  6476   0020F4  5009               	movf	___awmod@sign^(0+1280),w,c
  6477   0020F6  B4D8               	btfsc	status,2,c
  6478   0020F8  EF80  F010         	goto	u1591
  6479   0020FC  EF82  F010         	goto	u1590
  6480   002100                     u1591:
  6481   002100  EF86  F010         	goto	l3658
  6482   002104                     u1590:
  6483   002104  6C04               	negf	___awmod@dividend^(0+1280),c
  6484   002106  1E05               	comf	(___awmod@dividend+1)^(0+1280),f,c
  6485   002108  B0D8               	btfsc	status,0,c
  6486   00210A  2A05               	incf	(___awmod@dividend+1)^(0+1280),f,c
  6487   00210C                     l3658:
  6488   00210C  C504  F504         	movff	___awmod@dividend,?___awmod
  6489   002110  C505  F505         	movff	___awmod@dividend+1,?___awmod+1
  6490   002114  0012               	return		;funcret
  6491   002116                     __end_of___awmod:
  6492                           	callstack 0
  6493                           
  6494 ;; *************** function ___awdiv *****************
  6495 ;; Defined at:
  6496 ;;		line 7 in file "C:\Program Files\Microchip\xc8\v2.41\pic\sources\c99\common\awdiv.c"
  6497 ;; Parameters:    Size  Location     Type
  6498 ;;  dividend        2    3[COMRAM] int 
  6499 ;;  divisor         2    5[COMRAM] int 
  6500 ;; Auto vars:     Size  Location     Type
  6501 ;;  quotient        2    9[COMRAM] int 
  6502 ;;  sign            1    8[COMRAM] unsigned char 
  6503 ;;  counter         1    7[COMRAM] unsigned char 
  6504 ;; Return value:  Size  Location     Type
  6505 ;;                  2    3[COMRAM] int 
  6506 ;; Registers used:
  6507 ;;		wreg, status,2, status,0
  6508 ;; Tracked objects:
  6509 ;;		On entry : 0/0
  6510 ;;		On exit  : 0/0
  6511 ;;		Unchanged: 0/0
  6512 ;; Data sizes:     COMRAM   BANK5   BANK6   BANK7   BANK8   BANK9  BANK10  BANK11  BANK12  BANK13  BANK14  BANK15  BANK1
      +6  BANK17  BANK18  BANK19  BANK20
  6513 ;;      Params:         4       0       0       0       0       0       0       0       0       0       0       0       
      +0       0       0       0       0
  6514 ;;      Locals:         4       0       0       0       0       0       0       0       0       0       0       0       
      +0       0       0       0       0
  6515 ;;      Temps:          0       0       0       0       0       0       0       0       0       0       0       0       
      +0       0       0       0       0
  6516 ;;      Totals:         8       0       0       0       0       0       0       0       0       0       0       0       
      +0       0       0       0       0
  6517 ;;Total ram usage:        8 bytes
  6518 ;; Hardware stack levels used: 1
  6519 ;; Hardware stack levels required when called: 3
  6520 ;; This function calls:
  6521 ;;		Nothing
  6522 ;; This function is called by:
  6523 ;;		_dtoa
  6524 ;; This function uses a non-reentrant model
  6525 ;;
  6526                           
  6527                           	psect	text63
  6528   001FA2                     __ptext63:
  6529                           	callstack 0
  6530   001FA2                     ___awdiv:
  6531                           	callstack 118
  6532   001FA2  0E00               	movlw	0
  6533   001FA4  6E09               	movwf	___awdiv@sign^(0+1280),c
  6534   001FA6  BE07               	btfsc	(___awdiv@divisor+1)^(0+1280),7,c
  6535   001FA8  EFDA  F00F         	goto	u1480
  6536   001FAC  EFD8  F00F         	goto	u1481
  6537   001FB0                     u1481:
  6538   001FB0  EFE0  F00F         	goto	l3590
  6539   001FB4                     u1480:
  6540   001FB4  6C06               	negf	___awdiv@divisor^(0+1280),c
  6541   001FB6  1E07               	comf	(___awdiv@divisor+1)^(0+1280),f,c
  6542   001FB8  B0D8               	btfsc	status,0,c
  6543   001FBA  2A07               	incf	(___awdiv@divisor+1)^(0+1280),f,c
  6544   001FBC  0E01               	movlw	1
  6545   001FBE  6E09               	movwf	___awdiv@sign^(0+1280),c
  6546   001FC0                     l3590:
  6547   001FC0  BE05               	btfsc	(___awdiv@dividend+1)^(0+1280),7,c
  6548   001FC2  EFE7  F00F         	goto	u1490
  6549   001FC6  EFE5  F00F         	goto	u1491
  6550   001FCA                     u1491:
  6551   001FCA  EFED  F00F         	goto	l3596
  6552   001FCE                     u1490:
  6553   001FCE  6C04               	negf	___awdiv@dividend^(0+1280),c
  6554   001FD0  1E05               	comf	(___awdiv@dividend+1)^(0+1280),f,c
  6555   001FD2  B0D8               	btfsc	status,0,c
  6556   001FD4  2A05               	incf	(___awdiv@dividend+1)^(0+1280),f,c
  6557   001FD6  0E01               	movlw	1
  6558   001FD8  1A09               	xorwf	___awdiv@sign^(0+1280),f,c
  6559   001FDA                     l3596:
  6560   001FDA  0E00               	movlw	0
  6561   001FDC  6E0B               	movwf	(___awdiv@quotient+1)^(0+1280),c
  6562   001FDE  0E00               	movlw	0
  6563   001FE0  6E0A               	movwf	___awdiv@quotient^(0+1280),c
  6564   001FE2  5006               	movf	___awdiv@divisor^(0+1280),w,c
  6565   001FE4  1007               	iorwf	(___awdiv@divisor+1)^(0+1280),w,c
  6566   001FE6  B4D8               	btfsc	status,2,c
  6567   001FE8  EFF8  F00F         	goto	u1501
  6568   001FEC  EFFA  F00F         	goto	u1500
  6569   001FF0                     u1501:
  6570   001FF0  EF22  F010         	goto	l3618
  6571   001FF4                     u1500:
  6572   001FF4  0E01               	movlw	1
  6573   001FF6  6E08               	movwf	___awdiv@counter^(0+1280),c
  6574   001FF8  EF02  F010         	goto	l3604
  6575   001FFC                     l3602:
  6576   001FFC  90D8               	bcf	status,0,c
  6577   001FFE  3606               	rlcf	___awdiv@divisor^(0+1280),f,c
  6578   002000  3607               	rlcf	(___awdiv@divisor+1)^(0+1280),f,c
  6579   002002  2A08               	incf	___awdiv@counter^(0+1280),f,c
  6580   002004                     l3604:
  6581   002004  AE07               	btfss	(___awdiv@divisor+1)^(0+1280),7,c
  6582   002006  EF07  F010         	goto	u1511
  6583   00200A  EF09  F010         	goto	u1510
  6584   00200E                     u1511:
  6585   00200E  EFFE  F00F         	goto	l3602
  6586   002012                     u1510:
  6587   002012                     l3606:
  6588   002012  90D8               	bcf	status,0,c
  6589   002014  360A               	rlcf	___awdiv@quotient^(0+1280),f,c
  6590   002016  360B               	rlcf	(___awdiv@quotient+1)^(0+1280),f,c
  6591   002018  5006               	movf	___awdiv@divisor^(0+1280),w,c
  6592   00201A  5C04               	subwf	___awdiv@dividend^(0+1280),w,c
  6593   00201C  5007               	movf	(___awdiv@divisor+1)^(0+1280),w,c
  6594   00201E  5805               	subwfb	(___awdiv@dividend+1)^(0+1280),w,c
  6595   002020  A0D8               	btfss	status,0,c
  6596   002022  EF15  F010         	goto	u1521
  6597   002026  EF17  F010         	goto	u1520
  6598   00202A                     u1521:
  6599   00202A  EF1C  F010         	goto	l3614
  6600   00202E                     u1520:
  6601   00202E  5006               	movf	___awdiv@divisor^(0+1280),w,c
  6602   002030  5E04               	subwf	___awdiv@dividend^(0+1280),f,c
  6603   002032  5007               	movf	(___awdiv@divisor+1)^(0+1280),w,c
  6604   002034  5A05               	subwfb	(___awdiv@dividend+1)^(0+1280),f,c
  6605   002036  800A               	bsf	___awdiv@quotient^(0+1280),0,c
  6606   002038                     l3614:
  6607   002038  90D8               	bcf	status,0,c
  6608   00203A  3207               	rrcf	(___awdiv@divisor+1)^(0+1280),f,c
  6609   00203C  3206               	rrcf	___awdiv@divisor^(0+1280),f,c
  6610   00203E  2E08               	decfsz	___awdiv@counter^(0+1280),f,c
  6611   002040  EF09  F010         	goto	l3606
  6612   002044                     l3618:
  6613   002044  5009               	movf	___awdiv@sign^(0+1280),w,c
  6614   002046  B4D8               	btfsc	status,2,c
  6615   002048  EF28  F010         	goto	u1531
  6616   00204C  EF2A  F010         	goto	u1530
  6617   002050                     u1531:
  6618   002050  EF2E  F010         	goto	l3622
  6619   002054                     u1530:
  6620   002054  6C0A               	negf	___awdiv@quotient^(0+1280),c
  6621   002056  1E0B               	comf	(___awdiv@quotient+1)^(0+1280),f,c
  6622   002058  B0D8               	btfsc	status,0,c
  6623   00205A  2A0B               	incf	(___awdiv@quotient+1)^(0+1280),f,c
  6624   00205C                     l3622:
  6625   00205C  C50A  F504         	movff	___awdiv@quotient,?___awdiv
  6626   002060  C50B  F505         	movff	___awdiv@quotient+1,?___awdiv+1
  6627   002064  0012               	return		;funcret
  6628   002066                     __end_of___awdiv:
  6629                           	callstack 0
  6630                           
  6631 ;; *************** function _ADCC_GetSingleConversion *****************
  6632 ;; Defined at:
  6633 ;;		line 121 in file "mcc_generated_files/adc/src/adcc.c"
  6634 ;; Parameters:    Size  Location     Type
  6635 ;;  channel         1    wreg     enum E13010
  6636 ;; Auto vars:     Size  Location     Type
  6637 ;;  channel         1    7[COMRAM] enum E13010
  6638 ;; Return value:  Size  Location     Type
  6639 ;;                  2    3[COMRAM] unsigned short 
  6640 ;; Registers used:
  6641 ;;		wreg, status,2, status,0
  6642 ;; Tracked objects:
  6643 ;;		On entry : 0/0
  6644 ;;		On exit  : 0/0
  6645 ;;		Unchanged: 0/0
  6646 ;; Data sizes:     COMRAM   BANK5   BANK6   BANK7   BANK8   BANK9  BANK10  BANK11  BANK12  BANK13  BANK14  BANK15  BANK1
      +6  BANK17  BANK18  BANK19  BANK20
  6647 ;;      Params:         2       0       0       0       0       0       0       0       0       0       0       0       
      +0       0       0       0       0
  6648 ;;      Locals:         1       0       0       0       0       0       0       0       0       0       0       0       
      +0       0       0       0       0
  6649 ;;      Temps:          2       0       0       0       0       0       0       0       0       0       0       0       
      +0       0       0       0       0
  6650 ;;      Totals:         5       0       0       0       0       0       0       0       0       0       0       0       
      +0       0       0       0       0
  6651 ;;Total ram usage:        5 bytes
  6652 ;; Hardware stack levels used: 1
  6653 ;; Hardware stack levels required when called: 3
  6654 ;; This function calls:
  6655 ;;		Nothing
  6656 ;; This function is called by:
  6657 ;;		_ADC
  6658 ;;		_VSR
  6659 ;;		_PWM
  6660 ;;		_EEPROM
  6661 ;; This function uses a non-reentrant model
  6662 ;;
  6663                           
  6664                           	psect	text64
  6665   0028A4                     __ptext64:
  6666                           	callstack 0
  6667   0028A4                     _ADCC_GetSingleConversion:
  6668                           	callstack 122
  6669                           
  6670                           ;incstack = 0
  6671                           ;ADCC_GetSingleConversion@channel stored from wreg
  6672   0028A4  6E08               	movwf	ADCC_GetSingleConversion@channel^(0+1280),c
  6673   0028A6                     
  6674                           ;mcc_generated_files/adc/src/adcc.c: 121: adc_result_t ADCC_GetSingleConversion(adcc_cha
      +                          nnel_t channel);mcc_generated_files/adc/src/adcc.c: 122: {;mcc_generated_files/adc/src/a
      +                          dcc.c: 124:     ADPCH = channel;
  6675   0028A6  C508  F3EC         	movff	ADCC_GetSingleConversion@channel,1004	;volatile
  6676   0028AA                     
  6677                           ;mcc_generated_files/adc/src/adcc.c: 127:     ADCON0bits.ADCONT = 0;
  6678   0028AA  0103               	movlb	3	; () banked
  6679   0028AC  9DF3               	bcf	243,6,b	;volatile
  6680   0028AE                     
  6681                           ; BSR set to: 3
  6682                           ;mcc_generated_files/adc/src/adcc.c: 130:     ADCON0bits.ADGO = 1;
  6683   0028AE  81F3               	bsf	243,0,b	;volatile
  6684   0028B0                     l488:
  6685                           
  6686                           ; BSR set to: 3
  6687                           ;mcc_generated_files/adc/src/adcc.c: 134:     while (ADCON0bits.ADGO)
  6688   0028B0  B1F3               	btfsc	243,0,b	;volatile
  6689   0028B2  EF5D  F014         	goto	u1811
  6690   0028B6  EF5F  F014         	goto	u1810
  6691   0028BA                     u1811:
  6692   0028BA  EF58  F014         	goto	l488
  6693   0028BE                     u1810:
  6694   0028BE                     
  6695                           ; BSR set to: 3
  6696                           ;mcc_generated_files/adc/src/adcc.c: 140:     return ((adc_result_t)((ADRESH << 8) + ADR
      +                          ESL));
  6697   0028BE  51EB               	movf	235,w,b	;volatile
  6698   0028C0  6E07               	movwf	(??_ADCC_GetSingleConversion+1)^(0+1280),c
  6699   0028C2  6A06               	clrf	??_ADCC_GetSingleConversion^(0+1280),c
  6700   0028C4  51EA               	movf	234,w,b	;volatile
  6701   0028C6  2406               	addwf	??_ADCC_GetSingleConversion^(0+1280),w,c
  6702   0028C8  6E04               	movwf	?_ADCC_GetSingleConversion^(0+1280),c
  6703   0028CA  0E00               	movlw	0
  6704   0028CC  2007               	addwfc	(??_ADCC_GetSingleConversion+1)^(0+1280),w,c
  6705   0028CE  6E05               	movwf	(?_ADCC_GetSingleConversion+1)^(0+1280),c
  6706   0028D0                     
  6707                           ; BSR set to: 3
  6708   0028D0  0012               	return		;funcret
  6709   0028D2                     __end_of_ADCC_GetSingleConversion:
  6710                           	callstack 0
  6711                           
  6712 ;; *************** function _INTERRUPT_InterruptManager *****************
  6713 ;; Defined at:
  6714 ;;		line 80 in file "mcc_generated_files/system/src/interrupt.c"
  6715 ;; Parameters:    Size  Location     Type
  6716 ;;		None
  6717 ;; Auto vars:     Size  Location     Type
  6718 ;;		None
  6719 ;; Return value:  Size  Location     Type
  6720 ;;                  1    wreg      void 
  6721 ;; Registers used:
  6722 ;;		wreg, status,2, status,0, pcl, pclath, pclatu, tosl, cstack
  6723 ;; Tracked objects:
  6724 ;;		On entry : 0/0
  6725 ;;		On exit  : 0/0
  6726 ;;		Unchanged: 0/0
  6727 ;; Data sizes:     COMRAM   BANK5   BANK6   BANK7   BANK8   BANK9  BANK10  BANK11  BANK12  BANK13  BANK14  BANK15  BANK1
      +6  BANK17  BANK18  BANK19  BANK20
  6728 ;;      Params:         0       0       0       0       0       0       0       0       0       0       0       0       
      +0       0       0       0       0
  6729 ;;      Locals:         0       0       0       0       0       0       0       0       0       0       0       0       
      +0       0       0       0       0
  6730 ;;      Temps:          2       0       0       0       0       0       0       0       0       0       0       0       
      +0       0       0       0       0
  6731 ;;      Totals:         2       0       0       0       0       0       0       0       0       0       0       0       
      +0       0       0       0       0
  6732 ;;Total ram usage:        2 bytes
  6733 ;; Hardware stack levels used: 1
  6734 ;; Hardware stack levels required when called: 2
  6735 ;; This function calls:
  6736 ;;		_PIN_MANAGER_IOC
  6737 ;;		_Timer0_OverflowISR
  6738 ;; This function is called by:
  6739 ;;		Interrupt level 2
  6740 ;; This function uses a non-reentrant model
  6741 ;;
  6742                           
  6743                           	psect	text65
  6744   0025C6                     __ptext65:
  6745                           	callstack 0
  6746   0025C6                     _INTERRUPT_InterruptManager:
  6747                           	callstack 114
  6748                           
  6749                           ; BSR set to: 3
  6750                           ;incstack = 0
  6751   0025C6  C4FA F502          	movff	pclath,??_INTERRUPT_InterruptManager
  6752   0025CA  C4FB F503          	movff	pclatu,??_INTERRUPT_InterruptManager+1
  6753   0025CE                     
  6754                           ;mcc_generated_files/system/src/interrupt.c: 83:     if(PIE0bits.IOCIE == 1 && PIR0bits.
      +                          IOCIF == 1)
  6755   0025CE  AEA8               	btfss	168,7,c	;volatile
  6756   0025D0  EFEC  F012         	goto	i2u229_41
  6757   0025D4  EFEE  F012         	goto	i2u229_40
  6758   0025D8                     i2u229_41:
  6759   0025D8  EFF9  F012         	goto	i2l849
  6760   0025DC                     i2u229_40:
  6761   0025DC  AEB3               	btfss	179,7,c	;volatile
  6762   0025DE  EFF3  F012         	goto	i2u230_41
  6763   0025E2  EFF5  F012         	goto	i2u230_40
  6764   0025E6                     i2u230_41:
  6765   0025E6  EFF9  F012         	goto	i2l849
  6766   0025EA                     i2u230_40:
  6767   0025EA                     
  6768                           ;mcc_generated_files/system/src/interrupt.c: 84:     {;mcc_generated_files/system/src/in
      +                          terrupt.c: 85:         PIN_MANAGER_IOC();
  6769   0025EA  ECB0  F015         	call	_PIN_MANAGER_IOC	;wreg free
  6770                           
  6771                           ;mcc_generated_files/system/src/interrupt.c: 86:     }
  6772   0025EE  EF09  F013         	goto	i2l853
  6773   0025F2                     i2l849:
  6774   0025F2  AEAB               	btfss	171,7,c	;volatile
  6775   0025F4  EFFE  F012         	goto	i2u231_41
  6776   0025F8  EF00  F013         	goto	i2u231_40
  6777   0025FC                     i2u231_41:
  6778   0025FC  EF09  F013         	goto	i2l853
  6779   002600                     i2u231_40:
  6780   002600  AEB6               	btfss	182,7,c	;volatile
  6781   002602  EF05  F013         	goto	i2u232_41
  6782   002606  EF07  F013         	goto	i2u232_40
  6783   00260A                     i2u232_41:
  6784   00260A  EF09  F013         	goto	i2l853
  6785   00260E                     i2u232_40:
  6786   00260E                     
  6787                           ;mcc_generated_files/system/src/interrupt.c: 88:     {;mcc_generated_files/system/src/in
      +                          terrupt.c: 89:         Timer0_OverflowISR();
  6788   00260E  EC23  F014         	call	_Timer0_OverflowISR	;wreg free
  6789   002612                     i2l853:
  6790   002612  C503  F4FB         	movff	??_INTERRUPT_InterruptManager+1,pclatu
  6791   002616  C502  F4FA         	movff	??_INTERRUPT_InterruptManager,pclath
  6792   00261A  0011               	retfie		f
  6793   00261C                     __end_of_INTERRUPT_InterruptManager:
  6794                           	callstack 0
  6795                           
  6796 ;; *************** function _Timer0_OverflowISR *****************
  6797 ;; Defined at:
  6798 ;;		line 106 in file "mcc_generated_files/timer/src/tmr0.c"
  6799 ;; Parameters:    Size  Location     Type
  6800 ;;		None
  6801 ;; Auto vars:     Size  Location     Type
  6802 ;;		None
  6803 ;; Return value:  Size  Location     Type
  6804 ;;                  1    wreg      void 
  6805 ;; Registers used:
  6806 ;;		wreg, status,2, status,0, pcl, pclath, pclatu, tosl, cstack
  6807 ;; Tracked objects:
  6808 ;;		On entry : 0/0
  6809 ;;		On exit  : 0/0
  6810 ;;		Unchanged: 0/0
  6811 ;; Data sizes:     COMRAM   BANK5   BANK6   BANK7   BANK8   BANK9  BANK10  BANK11  BANK12  BANK13  BANK14  BANK15  BANK1
      +6  BANK17  BANK18  BANK19  BANK20
  6812 ;;      Params:         0       0       0       0       0       0       0       0       0       0       0       0       
      +0       0       0       0       0
  6813 ;;      Locals:         0       0       0       0       0       0       0       0       0       0       0       0       
      +0       0       0       0       0
  6814 ;;      Temps:          0       0       0       0       0       0       0       0       0       0       0       0       
      +0       0       0       0       0
  6815 ;;      Totals:         0       0       0       0       0       0       0       0       0       0       0       0       
      +0       0       0       0       0
  6816 ;;Total ram usage:        0 bytes
  6817 ;; Hardware stack levels used: 1
  6818 ;; Hardware stack levels required when called: 1
  6819 ;; This function calls:
  6820 ;;		NULL
  6821 ;;		_LAB_ISR
  6822 ;;		_TMR2_DefaultOverflowCallback
  6823 ;;		_Timer0_DefaultOverflowCallback
  6824 ;;		_Timer1_DefaultOverflowCallback
  6825 ;; This function is called by:
  6826 ;;		_INTERRUPT_InterruptManager
  6827 ;; This function uses a non-reentrant model
  6828 ;;
  6829                           
  6830                           	psect	text66
  6831   002846                     __ptext66:
  6832                           	callstack 0
  6833   002846                     _Timer0_OverflowISR:
  6834                           	callstack 114
  6835   002846                     
  6836                           ;mcc_generated_files/timer/src/tmr0.c: 109:     PIR3bits.TMR0IF = 0;
  6837   002846  9EB6               	bcf	182,7,c	;volatile
  6838   002848                     
  6839                           ;mcc_generated_files/timer/src/tmr0.c: 110:     if(Timer0_OverflowCallback)
  6840   002848  0105               	movlb	5	; () banked
  6841   00284A  5198               	movf	_Timer0_OverflowCallback& (0+255),w,b
  6842   00284C  1199               	iorwf	(_Timer0_OverflowCallback+1)& (0+255),w,b
  6843   00284E  B4D8               	btfsc	status,2,c
  6844   002850  EF2C  F014         	goto	i2u212_41
  6845   002854  EF2E  F014         	goto	i2u212_40
  6846   002858                     i2u212_41:
  6847   002858  EF3A  F014         	goto	i2l1196
  6848   00285C                     i2u212_40:
  6849   00285C                     
  6850                           ; BSR set to: 5
  6851                           ;mcc_generated_files/timer/src/tmr0.c: 111:     {;mcc_generated_files/timer/src/tmr0.c: 
      +                          112:         Timer0_OverflowCallback();
  6852   00285C  D802               	call	i2u213_48
  6853   00285E  EF3A  F014         	goto	i2u213_49
  6854   002862                     i2u213_48:
  6855   002862  0005               	push	
  6856   002864  6EFA               	movwf	pclath,c
  6857   002866  5198               	movf	_Timer0_OverflowCallback& (0+255),w,b
  6858   002868  6EFD               	movwf	tosl,c
  6859   00286A  5199               	movf	(_Timer0_OverflowCallback+1)& (0+255),w,b
  6860   00286C  6EFE               	movwf	tosh,c
  6861   00286E  6AFF               	clrf	tosu,c
  6862   002870  50FA               	movf	pclath,w,c
  6863   002872  0012               	return		;indir
  6864   002874                     i2u213_49:
  6865   002874                     i2l1196:
  6866   002874  0012               	return		;funcret
  6867   002876                     __end_of_Timer0_OverflowISR:
  6868                           	callstack 0
  6869                           
  6870 ;; *************** function _Timer0_DefaultOverflowCallback *****************
  6871 ;; Defined at:
  6872 ;;		line 121 in file "mcc_generated_files/timer/src/tmr0.c"
  6873 ;; Parameters:    Size  Location     Type
  6874 ;;		None
  6875 ;; Auto vars:     Size  Location     Type
  6876 ;;		None
  6877 ;; Return value:  Size  Location     Type
  6878 ;;                  1    wreg      void 
  6879 ;; Registers used:
  6880 ;;		None
  6881 ;; Tracked objects:
  6882 ;;		On entry : 0/0
  6883 ;;		On exit  : 0/0
  6884 ;;		Unchanged: 0/0
  6885 ;; Data sizes:     COMRAM   BANK5   BANK6   BANK7   BANK8   BANK9  BANK10  BANK11  BANK12  BANK13  BANK14  BANK15  BANK1
      +6  BANK17  BANK18  BANK19  BANK20
  6886 ;;      Params:         0       0       0       0       0       0       0       0       0       0       0       0       
      +0       0       0       0       0
  6887 ;;      Locals:         0       0       0       0       0       0       0       0       0       0       0       0       
      +0       0       0       0       0
  6888 ;;      Temps:          0       0       0       0       0       0       0       0       0       0       0       0       
      +0       0       0       0       0
  6889 ;;      Totals:         0       0       0       0       0       0       0       0       0       0       0       0       
      +0       0       0       0       0
  6890 ;;Total ram usage:        0 bytes
  6891 ;; Hardware stack levels used: 1
  6892 ;; This function calls:
  6893 ;;		Nothing
  6894 ;; This function is called by:
  6895 ;;		_Timer0_Initialize
  6896 ;;		_Timer0_OverflowISR
  6897 ;;		_Timer1_Tasks
  6898 ;;		_TMR2_Tasks
  6899 ;; This function uses a non-reentrant model
  6900 ;;
  6901                           
  6902                           	psect	text67
  6903   002B5A                     __ptext67:
  6904                           	callstack 0
  6905   002B5A                     _Timer0_DefaultOverflowCallback:
  6906                           	callstack 114
  6907   002B5A  0012               	return		;funcret
  6908   002B5C                     __end_of_Timer0_DefaultOverflowCallback:
  6909                           	callstack 0
  6910                           
  6911 ;; *************** function _TMR2_DefaultOverflowCallback *****************
  6912 ;; Defined at:
  6913 ;;		line 126 in file "mcc_generated_files/timer/src/tmr2.c"
  6914 ;; Parameters:    Size  Location     Type
  6915 ;;		None
  6916 ;; Auto vars:     Size  Location     Type
  6917 ;;		None
  6918 ;; Return value:  Size  Location     Type
  6919 ;;                  1    wreg      void 
  6920 ;; Registers used:
  6921 ;;		None
  6922 ;; Tracked objects:
  6923 ;;		On entry : 0/0
  6924 ;;		On exit  : 0/0
  6925 ;;		Unchanged: 0/0
  6926 ;; Data sizes:     COMRAM   BANK5   BANK6   BANK7   BANK8   BANK9  BANK10  BANK11  BANK12  BANK13  BANK14  BANK15  BANK1
      +6  BANK17  BANK18  BANK19  BANK20
  6927 ;;      Params:         0       0       0       0       0       0       0       0       0       0       0       0       
      +0       0       0       0       0
  6928 ;;      Locals:         0       0       0       0       0       0       0       0       0       0       0       0       
      +0       0       0       0       0
  6929 ;;      Temps:          0       0       0       0       0       0       0       0       0       0       0       0       
      +0       0       0       0       0
  6930 ;;      Totals:         0       0       0       0       0       0       0       0       0       0       0       0       
      +0       0       0       0       0
  6931 ;;Total ram usage:        0 bytes
  6932 ;; Hardware stack levels used: 1
  6933 ;; This function calls:
  6934 ;;		Nothing
  6935 ;; This function is called by:
  6936 ;;		_TMR2_Initialize
  6937 ;;		_Timer0_OverflowISR
  6938 ;;		_Timer1_Tasks
  6939 ;;		_TMR2_Tasks
  6940 ;; This function uses a non-reentrant model
  6941 ;;
  6942                           
  6943                           	psect	text68
  6944   002B5C                     __ptext68:
  6945                           	callstack 0
  6946   002B5C                     _TMR2_DefaultOverflowCallback:
  6947                           	callstack 114
  6948   002B5C  0012               	return		;funcret
  6949   002B5E                     __end_of_TMR2_DefaultOverflowCallback:
  6950                           	callstack 0
  6951                           
  6952 ;; *************** function _LAB_ISR *****************
  6953 ;; Defined at:
  6954 ;;		line 89 in file "Labs/Lab08_Interrupts/Interrupt.c"
  6955 ;; Parameters:    Size  Location     Type
  6956 ;;		None
  6957 ;; Auto vars:     Size  Location     Type
  6958 ;;		None
  6959 ;; Return value:  Size  Location     Type
  6960 ;;                  1    wreg      void 
  6961 ;; Registers used:
  6962 ;;		wreg, status,2, status,0
  6963 ;; Tracked objects:
  6964 ;;		On entry : 0/0
  6965 ;;		On exit  : 0/0
  6966 ;;		Unchanged: 0/0
  6967 ;; Data sizes:     COMRAM   BANK5   BANK6   BANK7   BANK8   BANK9  BANK10  BANK11  BANK12  BANK13  BANK14  BANK15  BANK1
      +6  BANK17  BANK18  BANK19  BANK20
  6968 ;;      Params:         0       0       0       0       0       0       0       0       0       0       0       0       
      +0       0       0       0       0
  6969 ;;      Locals:         0       0       0       0       0       0       0       0       0       0       0       0       
      +0       0       0       0       0
  6970 ;;      Temps:          1       0       0       0       0       0       0       0       0       0       0       0       
      +0       0       0       0       0
  6971 ;;      Totals:         1       0       0       0       0       0       0       0       0       0       0       0       
      +0       0       0       0       0
  6972 ;;Total ram usage:        1 bytes
  6973 ;; Hardware stack levels used: 1
  6974 ;; This function calls:
  6975 ;;		Nothing
  6976 ;; This function is called by:
  6977 ;;		_Interrupt
  6978 ;;		_Timer0_OverflowISR
  6979 ;;		_Timer1_Tasks
  6980 ;;		_TMR2_Tasks
  6981 ;; This function uses a non-reentrant model
  6982 ;;
  6983                           
  6984                           	psect	text69
  6985   0022C8                     __ptext69:
  6986                           	callstack 0
  6987   0022C8                     _LAB_ISR:
  6988                           	callstack 114
  6989   0022C8                     
  6990                           ;Labs/Lab08_Interrupts/Interrupt.c: 91:     if (rotateReg == 1) {
  6991   0022C8  0454               	decf	_rotateReg@Interrupt$F496^(0+1280),w,c
  6992   0022CA  A4D8               	btfss	status,2,c
  6993   0022CC  EF6A  F011         	goto	i2u182_41
  6994   0022D0  EF6C  F011         	goto	i2u182_40
  6995   0022D4                     i2u182_41:
  6996   0022D4  EF6E  F011         	goto	i2l3850
  6997   0022D8                     i2u182_40:
  6998   0022D8                     
  6999                           ;Labs/Lab08_Interrupts/Interrupt.c: 92:         rotateReg = 16;
  7000   0022D8  0E10               	movlw	16
  7001   0022DA  6E54               	movwf	_rotateReg@Interrupt$F496^(0+1280),c
  7002   0022DC                     i2l3850:
  7003                           
  7004                           ;Labs/Lab08_Interrupts/Interrupt.c: 95:     rotateReg >>= 1;
  7005   0022DC  90D8               	bcf	status,0,c
  7006   0022DE  3254               	rrcf	_rotateReg@Interrupt$F496^(0+1280),f,c
  7007   0022E0                     
  7008                           ;Labs/Lab08_Interrupts/Interrupt.c: 99:     LATAbits.LATA5 = rotateReg & 1;
  7009   0022E0  C554  F501         	movff	_rotateReg@Interrupt$F496,??_LAB_ISR
  7010   0022E4  0E01               	movlw	1
  7011   0022E6  1601               	andwf	??_LAB_ISR^(0+1280),f,c
  7012   0022E8  3A01               	swapf	??_LAB_ISR^(0+1280),f,c
  7013   0022EA  4601               	rlncf	??_LAB_ISR^(0+1280),f,c
  7014   0022EC  50BE               	movf	190,w,c	;volatile
  7015   0022EE  1801               	xorwf	??_LAB_ISR^(0+1280),w,c
  7016   0022F0  0BDF               	andlw	-33
  7017   0022F2  1801               	xorwf	??_LAB_ISR^(0+1280),w,c
  7018   0022F4  6EBE               	movwf	190,c	;volatile
  7019   0022F6                     
  7020                           ;Labs/Lab08_Interrupts/Interrupt.c: 100:     LATAbits.LATA1 = (rotateReg & 2) >> 1;
  7021   0022F6  C554  F501         	movff	_rotateReg@Interrupt$F496,??_LAB_ISR
  7022   0022FA  90D8               	bcf	status,0,c
  7023   0022FC  3201               	rrcf	??_LAB_ISR^(0+1280),f,c
  7024   0022FE  0E01               	movlw	1
  7025   002300  1601               	andwf	??_LAB_ISR^(0+1280),f,c
  7026   002302  4601               	rlncf	??_LAB_ISR^(0+1280),f,c
  7027   002304  50BE               	movf	190,w,c	;volatile
  7028   002306  1801               	xorwf	??_LAB_ISR^(0+1280),w,c
  7029   002308  0BFD               	andlw	-3
  7030   00230A  1801               	xorwf	??_LAB_ISR^(0+1280),w,c
  7031   00230C  6EBE               	movwf	190,c	;volatile
  7032   00230E                     
  7033                           ;Labs/Lab08_Interrupts/Interrupt.c: 101:     LATAbits.LATA2 = (rotateReg & 4) >> 2;
  7034   00230E  C554  F501         	movff	_rotateReg@Interrupt$F496,??_LAB_ISR
  7035   002312  90D8               	bcf	status,0,c
  7036   002314  3201               	rrcf	??_LAB_ISR^(0+1280),f,c
  7037   002316  90D8               	bcf	status,0,c
  7038   002318  3201               	rrcf	??_LAB_ISR^(0+1280),f,c
  7039   00231A  0E01               	movlw	1
  7040   00231C  1601               	andwf	??_LAB_ISR^(0+1280),f,c
  7041   00231E  4601               	rlncf	??_LAB_ISR^(0+1280),f,c
  7042   002320  4601               	rlncf	??_LAB_ISR^(0+1280),f,c
  7043   002322  50BE               	movf	190,w,c	;volatile
  7044   002324  1801               	xorwf	??_LAB_ISR^(0+1280),w,c
  7045   002326  0BFB               	andlw	-5
  7046   002328  1801               	xorwf	??_LAB_ISR^(0+1280),w,c
  7047   00232A  6EBE               	movwf	190,c	;volatile
  7048   00232C                     
  7049                           ;Labs/Lab08_Interrupts/Interrupt.c: 102:     LATCbits.LATC5 = (rotateReg & 8) >> 3;
  7050   00232C  C554  F501         	movff	_rotateReg@Interrupt$F496,??_LAB_ISR
  7051   002330  90D8               	bcf	status,0,c
  7052   002332  3201               	rrcf	??_LAB_ISR^(0+1280),f,c
  7053   002334  90D8               	bcf	status,0,c
  7054   002336  3201               	rrcf	??_LAB_ISR^(0+1280),f,c
  7055   002338  90D8               	bcf	status,0,c
  7056   00233A  3201               	rrcf	??_LAB_ISR^(0+1280),f,c
  7057   00233C  0E01               	movlw	1
  7058   00233E  1601               	andwf	??_LAB_ISR^(0+1280),f,c
  7059   002340  3A01               	swapf	??_LAB_ISR^(0+1280),f,c
  7060   002342  4601               	rlncf	??_LAB_ISR^(0+1280),f,c
  7061   002344  50C0               	movf	192,w,c	;volatile
  7062   002346  1801               	xorwf	??_LAB_ISR^(0+1280),w,c
  7063   002348  0BDF               	andlw	-33
  7064   00234A  1801               	xorwf	??_LAB_ISR^(0+1280),w,c
  7065   00234C  6EC0               	movwf	192,c	;volatile
  7066   00234E  0012               	return		;funcret
  7067   002350                     __end_of_LAB_ISR:
  7068                           	callstack 0
  7069                           
  7070 ;; *************** function _Timer1_DefaultOverflowCallback *****************
  7071 ;; Defined at:
  7072 ;;		line 159 in file "mcc_generated_files/timer/src/tmr1.c"
  7073 ;; Parameters:    Size  Location     Type
  7074 ;;		None
  7075 ;; Auto vars:     Size  Location     Type
  7076 ;;		None
  7077 ;; Return value:  Size  Location     Type
  7078 ;;                  1    wreg      void 
  7079 ;; Registers used:
  7080 ;;		None
  7081 ;; Tracked objects:
  7082 ;;		On entry : 0/0
  7083 ;;		On exit  : 0/0
  7084 ;;		Unchanged: 0/0
  7085 ;; Data sizes:     COMRAM   BANK5   BANK6   BANK7   BANK8   BANK9  BANK10  BANK11  BANK12  BANK13  BANK14  BANK15  BANK1
      +6  BANK17  BANK18  BANK19  BANK20
  7086 ;;      Params:         0       0       0       0       0       0       0       0       0       0       0       0       
      +0       0       0       0       0
  7087 ;;      Locals:         0       0       0       0       0       0       0       0       0       0       0       0       
      +0       0       0       0       0
  7088 ;;      Temps:          0       0       0       0       0       0       0       0       0       0       0       0       
      +0       0       0       0       0
  7089 ;;      Totals:         0       0       0       0       0       0       0       0       0       0       0       0       
      +0       0       0       0       0
  7090 ;;Total ram usage:        0 bytes
  7091 ;; Hardware stack levels used: 1
  7092 ;; This function calls:
  7093 ;;		Nothing
  7094 ;; This function is called by:
  7095 ;;		_Timer1_Initialize
  7096 ;;		_Timer0_OverflowISR
  7097 ;;		_Timer1_Tasks
  7098 ;;		_TMR2_Tasks
  7099 ;; This function uses a non-reentrant model
  7100 ;;
  7101                           
  7102                           	psect	text70
  7103   002B5E                     __ptext70:
  7104                           	callstack 0
  7105   002B5E                     _Timer1_DefaultOverflowCallback:
  7106                           	callstack 114
  7107   002B5E  0012               	return		;funcret
  7108   002B60                     __end_of_Timer1_DefaultOverflowCallback:
  7109                           	callstack 0
  7110                           
  7111 ;; *************** function _PIN_MANAGER_IOC *****************
  7112 ;; Defined at:
  7113 ;;		line 116 in file "mcc_generated_files/system/src/pins.c"
  7114 ;; Parameters:    Size  Location     Type
  7115 ;;		None
  7116 ;; Auto vars:     Size  Location     Type
  7117 ;;		None
  7118 ;; Return value:  Size  Location     Type
  7119 ;;                  1    wreg      void 
  7120 ;; Registers used:
  7121 ;;		None
  7122 ;; Tracked objects:
  7123 ;;		On entry : 0/0
  7124 ;;		On exit  : 0/0
  7125 ;;		Unchanged: 0/0
  7126 ;; Data sizes:     COMRAM   BANK5   BANK6   BANK7   BANK8   BANK9  BANK10  BANK11  BANK12  BANK13  BANK14  BANK15  BANK1
      +6  BANK17  BANK18  BANK19  BANK20
  7127 ;;      Params:         0       0       0       0       0       0       0       0       0       0       0       0       
      +0       0       0       0       0
  7128 ;;      Locals:         0       0       0       0       0       0       0       0       0       0       0       0       
      +0       0       0       0       0
  7129 ;;      Temps:          0       0       0       0       0       0       0       0       0       0       0       0       
      +0       0       0       0       0
  7130 ;;      Totals:         0       0       0       0       0       0       0       0       0       0       0       0       
      +0       0       0       0       0
  7131 ;;Total ram usage:        0 bytes
  7132 ;; Hardware stack levels used: 1
  7133 ;; This function calls:
  7134 ;;		Nothing
  7135 ;; This function is called by:
  7136 ;;		_INTERRUPT_InterruptManager
  7137 ;; This function uses a non-reentrant model
  7138 ;;
  7139                           
  7140                           	psect	text71
  7141   002B60                     __ptext71:
  7142                           	callstack 0
  7143   002B60                     _PIN_MANAGER_IOC:
  7144                           	callstack 115
  7145   002B60  0012               	return		;funcret
  7146   002B62                     __end_of_PIN_MANAGER_IOC:
  7147                           	callstack 0
  7148                           
  7149                           ;
  7150                           ; Interrupt Vector Table @ 0x8
  7151                           ;
  7152                           
  7153                           	psect	ivt0x8
  7154   000008                     __pivt0x8:
  7155                           	callstack 0
  7156   000008                     ivt0x8_base:
  7157                           	callstack 0
  7158                           
  7159                           ; high-priority vector
  7160   000008  EFE3  F012         	goto	_INTERRUPT_InterruptManager
  7161   000018                     	org	16
  7162                           
  7163                           ; low-priority vector
  7164   000018  00FF               	reset	
  7165                           
  7166                           	psect	text72
  7167   000000                     __ptext72:
  7168                           	callstack 0
  7169   000000                     
  7170                           	psect	rparam
  7171   000000                     
  7172                           	psect	config
  7173                           
  7174                           ;Config register CONFIG1 @ 0x300000
  7175                           ;	External Oscillator Selection
  7176                           ;	FEXTOSC = OFF, Oscillator not enabled
  7177                           ;	Reset Oscillator Selection
  7178                           ;	RSTOSC = EXTOSC, EXTOSC operating per FEXTOSC bits (device manufacturing default)
  7179   300000                     	org	3145728
  7180   300000  FC                 	db	252
  7181                           
  7182                           ;Config register CONFIG2 @ 0x300001
  7183                           ;	Clock out Enable bit
  7184                           ;	CLKOUTEN = OFF, CLKOUT function is disabled
  7185                           ;	PRLOCKED One-Way Set Enable bit
  7186                           ;	PR1WAY = ON, PRLOCKED bit can be cleared and set only once
  7187                           ;	Clock Switch Enable bit
  7188                           ;	CSWEN = ON, Writing to NOSC and NDIV is allowed
  7189                           ;	Fail-Safe Clock Monitor Enable bit
  7190                           ;	FCMEN = ON, Fail-Safe Clock Monitor enabled
  7191                           ;	Fail-Safe Clock Monitor - Primary XTAL Enable bit
  7192                           ;	FCMENP = ON, Fail-Safe Clock Monitor enabled; timer will flag FSCMP bit and OSFIF inte
      +                          rrupt on EXTOSC failure.
  7193                           ;	Fail-Safe Clock Monitor - Secondary XTAL Enable bit
  7194                           ;	FCMENS = ON, Fail-Safe Clock Monitor enabled; timer will flag FSCMP bit and OSFIF inte
      +                          rrupt on SOSC failure.
  7195   300001                     	org	3145729
  7196   300001  FF                 	db	255
  7197                           
  7198                           ;Config register CONFIG3 @ 0x300002
  7199                           ;	MCLR Enable bit
  7200                           ;	MCLRE = EXTMCLR, If LVP = 0, MCLR pin is MCLR; If LVP = 1, RE3 pin function is MCLR
  7201                           ;	Power-up timer selection bits
  7202                           ;	PWRTS = PWRT_OFF, PWRT is disabled
  7203                           ;	Multi-vector enable bit
  7204                           ;	MVECEN = OFF, Interrupt contoller does not use vector table to prioritze interrupts
  7205                           ;	IVTLOCK bit One-way set enable bit
  7206                           ;	IVT1WAY = ON, IVTLOCKED bit can be cleared and set only once
  7207                           ;	Low Power BOR Enable bit
  7208                           ;	LPBOREN = OFF, Low-Power BOR disabled
  7209                           ;	Brown-out Reset Enable bits
  7210                           ;	BOREN = SBORDIS, Brown-out Reset enabled , SBOREN bit is ignored
  7211   300002                     	org	3145730
  7212   300002  F7                 	db	247
  7213                           
  7214                           ;Config register CONFIG4 @ 0x300003
  7215                           ;	Brown-out Reset Voltage Selection bits
  7216                           ;	BORV = VBOR_1P9, Brown-out Reset Voltage (VBOR) set to 1.9V
  7217                           ;	ZCD Disable bit
  7218                           ;	ZCD = OFF, ZCD module is disabled. ZCD can be enabled by setting the ZCDSEN bit of ZCD
      +                          CON
  7219                           ;	PPSLOCK bit One-Way Set Enable bit
  7220                           ;	PPS1WAY = ON, PPSLOCKED bit can be cleared and set only once; PPS registers remain loc
      +                          ked after one clear/set cycle
  7221                           ;	Stack Full/Underflow Reset Enable bit
  7222                           ;	STVREN = ON, Stack full/underflow will cause Reset
  7223                           ;	Low Voltage Programming Enable bit
  7224                           ;	LVP = ON, Low voltage programming enabled. MCLR/VPP pin function is MCLR. MCLRE config
      +                          uration bit is ignored
  7225                           ;	Extended Instruction Set Enable bit
  7226                           ;	XINST = OFF, Extended Instruction Set and Indexed Addressing Mode disabled
  7227   300003                     	org	3145731
  7228   300003  FF                 	db	255
  7229                           
  7230                           ;Config register CONFIG5 @ 0x300004
  7231                           ;	WDT Period selection bits
  7232                           ;	WDTCPS = WDTCPS_31, Divider ratio 1:65536; software control of WDTPS
  7233                           ;	WDT operating mode
  7234                           ;	WDTE = SWDTEN, WDT enabled/disabled by SWDTEN bit
  7235   300004                     	org	3145732
  7236   300004  BF                 	db	191
  7237                           
  7238                           ;Config register CONFIG6 @ 0x300005
  7239                           ;	WDT Window Select bits
  7240                           ;	WDTCWS = WDTCWS_7, window always open (100%); software control; keyed access not requi
      +                          red
  7241                           ;	WDT input clock selector
  7242                           ;	WDTCCS = SC, Software Control
  7243   300005                     	org	3145733
  7244   300005  FF                 	db	255
  7245                           
  7246                           ;Config register CONFIG7 @ 0x300006
  7247                           ;	Boot Block Size selection bits
  7248                           ;	BBSIZE = BBSIZE_512, Boot Block size is 512 words
  7249                           ;	Boot Block enable bit
  7250                           ;	BBEN = OFF, Boot block disabled
  7251                           ;	Storage Area Flash enable bit
  7252                           ;	SAFEN = OFF, SAF disabled
  7253                           ;	Background Debugger
  7254                           ;	DEBUG = OFF, Background Debugger disabled
  7255   300006                     	org	3145734
  7256   300006  FF                 	db	255
  7257                           
  7258                           ;Config register CONFIG8 @ 0x300007
  7259                           ;	Boot Block Write Protection bit
  7260                           ;	WRTB = OFF, Boot Block not Write protected
  7261                           ;	Configuration Register Write Protection bit
  7262                           ;	WRTC = OFF, Configuration registers not Write protected
  7263                           ;	Data EEPROM Write Protection bit
  7264                           ;	WRTD = OFF, Data EEPROM not Write protected
  7265                           ;	SAF Write protection bit
  7266                           ;	WRTSAF = OFF, SAF not Write Protected
  7267                           ;	Application Block write protection bit
  7268                           ;	WRTAPP = OFF, Application Block not write protected
  7269   300007                     	org	3145735
  7270   300007  FF                 	db	255
  7271                           
  7272                           ;Config register CONFIG9 @ 0x300008
  7273                           ;	PFM and Data EEPROM Code Protection bit
  7274                           ;	CP = OFF, PFM and Data EEPROM code protection disabled
  7275   300008                     	org	3145736
  7276   300008  FF                 	db	255
  7277                           tosu	equ	0x4FF
  7278                           tosh	equ	0x4FE
  7279                           tosl	equ	0x4FD
  7280                           stkptr	equ	0x4FC
  7281                           pclatu	equ	0x4FB
  7282                           pclath	equ	0x4FA
  7283                           pcl	equ	0x4F9
  7284                           tblptru	equ	0x4F8
  7285                           tblptrh	equ	0x4F7
  7286                           tblptrl	equ	0x4F6
  7287                           tablat	equ	0x4F5
  7288                           prodh	equ	0x4F4
  7289                           prodl	equ	0x4F3
  7290                           indf0	equ	0x4EF
  7291                           postinc0	equ	0x4EE
  7292                           postdec0	equ	0x4ED
  7293                           preinc0	equ	0x4EC
  7294                           plusw0	equ	0x4EB
  7295                           fsr0h	equ	0x4EA
  7296                           fsr0l	equ	0x4E9
  7297                           wreg	equ	0x4E8
  7298                           indf1	equ	0x4E7
  7299                           postinc1	equ	0x4E6
  7300                           postdec1	equ	0x4E5
  7301                           preinc1	equ	0x4E4
  7302                           plusw1	equ	0x4E3
  7303                           fsr1h	equ	0x4E2
  7304                           fsr1l	equ	0x4E1
  7305                           bsr	equ	0x4E0
  7306                           indf2	equ	0x4DF
  7307                           postinc2	equ	0x4DE
  7308                           postdec2	equ	0x4DD
  7309                           preinc2	equ	0x4DC
  7310                           plusw2	equ	0x4DB
  7311                           fsr2h	equ	0x4DA
  7312                           fsr2l	equ	0x4D9
  7313                           status	equ	0x4D8

Data Sizes:
    Strings     17
    Constant    84
    Data        0
    BSS         73
    Persistent  12
    Stack       0

Auto Spaces:
    Space          Size  Autos    Used
    COMRAM           95     78      95
    BANK5           160      0      68
    BANK6           256      0       0
    BANK7           256      0       0
    BANK8           256      0       0
    BANK9           256      0       0
    BANK10          256      0       0
    BANK11          256      0       0
    BANK12          256      0       0
    BANK13          256      0       0
    BANK14          256      0       0
    BANK15          256      0       0
    BANK16          256      0       0
    BANK17          256      0       0
    BANK18          256      0       0
    BANK19          256      0       0
    BANK20          256      0       0

Pointer List with Targets:

    S1752$4$0	PTR FTN()void  size(2) Largest target is 1
		 -> Timer0_DefaultOverflowCallback(), TMR2_DefaultOverflowCallback(), Timer1_DefaultOverflowCallback(), LAB_ISR(), 

    S2430$20$0	PTR FTN()void  size(2) Largest target is 1
		 -> UART1_DefaultFramingErrorCallback(), 

    S2430$21$0	PTR FTN()void  size(2) Largest target is 1
		 -> UART1_DefaultOverrunErrorCallback(), 

    S2430$22$0	PTR FTN()void  size(2) Largest target is 1
		 -> UART1_DefaultParityErrorCallback(), 

    Timer1_InterruptHandler	PTR FTN()void  size(2) Largest target is 1
		 -> NULL(), 

    fputs@s	PTR const unsigned char  size(2) Largest target is 32
		 -> dbuf(BANK5[32]), 

    fputs@fp	PTR struct _IO_FILE size(2) Largest target is 0
		 -> NULL(NULL[0]), 

    S3480$source	PTR const unsigned char  size(2) Largest target is 0

    fputc@fp...source	PTR const unsigned char  size(2) Largest target is 0

    S3480$buffer	PTR unsigned char  size(2) Largest target is 0

    fputc@fp...buffer	PTR unsigned char  size(2) Largest target is 0

    fputc@fp	PTR struct _IO_FILE size(2) Largest target is 0
		 -> NULL(NULL[0]), 

    vfprintf@ap	PTR PTR void  size(2) Largest target is 2
		 -> printf@ap(COMRAM[2]), 

    vfprintf@fp	PTR struct _IO_FILE size(2) Largest target is 0
		 -> NULL(NULL[0]), 

    vfprintf@fmt	PTR const unsigned char  size(2) Largest target is 17
		 -> STR_4(CODE[17]), STR_3(CODE[17]), STR_2(CODE[17]), STR_1(CODE[17]), 

    vfprintf@cfmt	PTR unsigned char  size(2) Largest target is 17
		 -> STR_4(CODE[17]), STR_3(CODE[17]), STR_2(CODE[17]), STR_1(CODE[17]), 

    vfpfcnvrt@fp	PTR struct _IO_FILE size(2) Largest target is 0
		 -> NULL(NULL[0]), 

    vfpfcnvrt@ap	PTR PTR void  size(2) Largest target is 2
		 -> printf@ap(COMRAM[2]), 

    vfpfcnvrt@cp	PTR unsigned char  size(2) Largest target is 17
		 -> STR_4(CODE[17]), STR_3(CODE[17]), STR_2(CODE[17]), STR_1(CODE[17]), 

    vfpfcnvrt@fmt	PTR PTR unsigned char  size(2) Largest target is 2
		 -> vfprintf@cfmt(COMRAM[2]), 

    S3519$vp	PTR void  size(2) Largest target is 0

    convarg.vp	PTR void  size(2) Largest target is 0

    dtoa@fp	PTR struct _IO_FILE size(2) Largest target is 0
		 -> NULL(NULL[0]), 

    pad@buf	PTR unsigned char  size(2) Largest target is 32
		 -> dbuf(BANK5[32]), 

    pad@fp	PTR struct _IO_FILE size(2) Largest target is 0
		 -> NULL(NULL[0]), 

    printf@fmt	PTR const unsigned char  size(2) Largest target is 17
		 -> STR_4(CODE[17]), STR_3(CODE[17]), STR_2(CODE[17]), STR_1(CODE[17]), 

    printf@ap	PTR void [1] size(2) Largest target is 2
		 -> ?_printf(COMRAM[2]), 

    UART1_ParityErrorHandler	PTR FTN()void  size(2) Largest target is 1
		 -> UART1_DefaultParityErrorCallback(), NULL(), 

    UART1_ParityErrorCallbackRegister@callbackHandler	PTR FTN()void  size(2) Largest target is 1
		 -> UART1_DefaultParityErrorCallback(), 

    UART1_OverrunErrorCallbackRegister@callbackHandler	PTR FTN()void  size(2) Largest target is 1
		 -> UART1_DefaultOverrunErrorCallback(), 

    UART1_FramingErrorCallbackRegister@callbackHandler	PTR FTN()void  size(2) Largest target is 1
		 -> UART1_DefaultFramingErrorCallback(), 

    UART1_OverrunErrorHandler	PTR FTN()void  size(2) Largest target is 1
		 -> UART1_DefaultOverrunErrorCallback(), NULL(), 

    UART1_FramingErrorHandler	PTR FTN()void  size(2) Largest target is 1
		 -> UART1_DefaultFramingErrorCallback(), NULL(), 

    S2430$EventCallbackRegister	PTR FTN(PTR FTN()void ,)void  size(2) Largest target is 1
		 -> NULL(), 

    UART1.EventCallbackRegister	PTR FTN(PTR FTN()void ,)void  size(2) Largest target is 1
		 -> NULL(), 

    S2430$ParityErrorCallbackRegister	PTR FTN(PTR FTN()void ,)void  size(2) Largest target is 1
		 -> UART1_ParityErrorCallbackRegister(), 

    UART1.ParityErrorCallbackRegister	PTR FTN(PTR FTN()void ,)void  size(2) Largest target is 1
		 -> UART1_ParityErrorCallbackRegister(), 

    S2430$OverrunErrorCallbackRegister	PTR FTN(PTR FTN()void ,)void  size(2) Largest target is 1
		 -> UART1_OverrunErrorCallbackRegister(), 

    UART1.OverrunErrorCallbackRegister	PTR FTN(PTR FTN()void ,)void  size(2) Largest target is 1
		 -> UART1_OverrunErrorCallbackRegister(), 

    S2430$FramingErrorCallbackRegister	PTR FTN(PTR FTN()void ,)void  size(2) Largest target is 1
		 -> UART1_FramingErrorCallbackRegister(), 

    UART1.FramingErrorCallbackRegister	PTR FTN(PTR FTN()void ,)void  size(2) Largest target is 1
		 -> UART1_FramingErrorCallbackRegister(), 

    S2430$TxCollisionCallbackRegister	PTR FTN(PTR FTN()void ,)void  size(2) Largest target is 1
		 -> NULL(), 

    UART1.TxCollisionCallbackRegister	PTR FTN(PTR FTN()void ,)void  size(2) Largest target is 1
		 -> NULL(), 

    S2430$RxCompleteCallbackRegister	PTR FTN(PTR FTN()void ,)void  size(2) Largest target is 1
		 -> NULL(), 

    UART1.RxCompleteCallbackRegister	PTR FTN(PTR FTN()void ,)void  size(2) Largest target is 1
		 -> NULL(), 

    S2430$TxCompleteCallbackRegister	PTR FTN(PTR FTN()void ,)void  size(2) Largest target is 1
		 -> NULL(), 

    UART1.TxCompleteCallbackRegister	PTR FTN(PTR FTN()void ,)void  size(2) Largest target is 1
		 -> NULL(), 

    S2430$ErrorGet	PTR FTN()unsigned int  size(2) Largest target is 2
		 -> UART1_ErrorGet(), 

    UART1.ErrorGet	PTR FTN()unsigned int  size(2) Largest target is 2
		 -> UART1_ErrorGet(), 

    S2430$BaudRateGet	PTR FTN()unsigned long  size(2) Largest target is 1
		 -> NULL(), 

    UART1.BaudRateGet	PTR FTN()unsigned long  size(2) Largest target is 1
		 -> NULL(), 

    S2430$BaudRateSet	PTR FTN(unsigned long ,)void  size(2) Largest target is 1
		 -> NULL(), 

    UART1.BaudRateSet	PTR FTN(unsigned long ,)void  size(2) Largest target is 1
		 -> NULL(), 

    S2430$BRGCountGet	PTR FTN()unsigned long  size(2) Largest target is 1
		 -> NULL(), 

    UART1.BRGCountGet	PTR FTN()unsigned long  size(2) Largest target is 1
		 -> NULL(), 

    S2430$BRGCountSet	PTR FTN(unsigned long ,)void  size(2) Largest target is 1
		 -> NULL(), 

    UART1.BRGCountSet	PTR FTN(unsigned long ,)void  size(2) Largest target is 1
		 -> NULL(), 

    S2430$AutoBaudEventEnableGet	PTR FTN()_Bool  size(2) Largest target is 1
		 -> NULL(), 

    UART1.AutoBaudEventEnableGet	PTR FTN()_Bool  size(2) Largest target is 1
		 -> NULL(), 

    S2430$AutoBaudQuery	PTR FTN()_Bool  size(2) Largest target is 1
		 -> UART1_AutoBaudQuery(), 

    UART1.AutoBaudQuery	PTR FTN()_Bool  size(2) Largest target is 1
		 -> UART1_AutoBaudQuery(), 

    S2430$AutoBaudSet	PTR FTN(_Bool ,)void  size(2) Largest target is 1
		 -> UART1_AutoBaudSet(), 

    UART1.AutoBaudSet	PTR FTN(_Bool ,)void  size(2) Largest target is 1
		 -> UART1_AutoBaudSet(), 

    S2430$TransmitDisable	PTR FTN()void  size(2) Largest target is 1
		 -> UART1_TransmitDisable(), 

    UART1.TransmitDisable	PTR FTN()void  size(2) Largest target is 1
		 -> UART1_TransmitDisable(), 

    S2430$TransmitEnable	PTR FTN()void  size(2) Largest target is 1
		 -> UART1_TransmitEnable(), 

    UART1.TransmitEnable	PTR FTN()void  size(2) Largest target is 1
		 -> UART1_TransmitEnable(), 

    S2430$IsTxDone	PTR FTN()_Bool  size(2) Largest target is 1
		 -> UART1_IsTxDone(), 

    UART1.IsTxDone	PTR FTN()_Bool  size(2) Largest target is 1
		 -> UART1_IsTxDone(), 

    S2430$IsTxReady	PTR FTN()_Bool  size(2) Largest target is 1
		 -> UART1_IsTxReady(), 

    UART1.IsTxReady	PTR FTN()_Bool  size(2) Largest target is 1
		 -> UART1_IsTxReady(), 

    S2430$IsRxReady	PTR FTN()_Bool  size(2) Largest target is 1
		 -> UART1_IsRxReady(), 

    UART1.IsRxReady	PTR FTN()_Bool  size(2) Largest target is 1
		 -> UART1_IsRxReady(), 

    S2430$Write	PTR FTN(unsigned char ,)void  size(2) Largest target is 1
		 -> UART1_Write(), 

    UART1.Write	PTR FTN(unsigned char ,)void  size(2) Largest target is 1
		 -> UART1_Write(), 

    S2430$Read	PTR FTN()unsigned char  size(2) Largest target is 1
		 -> UART1_Read(), 

    UART1.Read	PTR FTN()unsigned char  size(2) Largest target is 1
		 -> UART1_Read(), 

    S2430$Deinitialize	PTR FTN()void  size(2) Largest target is 1
		 -> UART1_Deinitialize(), 

    UART1.Deinitialize	PTR FTN()void  size(2) Largest target is 1
		 -> UART1_Deinitialize(), 

    S2430$Initialize	PTR FTN()void  size(2) Largest target is 1
		 -> UART1_Initialize(), 

    UART1.Initialize	PTR FTN()void  size(2) Largest target is 1
		 -> UART1_Initialize(), 

    Timer0_OverflowCallbackRegister@CallbackHandler	PTR FTN()void  size(2) Largest target is 1
		 -> Timer0_DefaultOverflowCallback(), TMR2_DefaultOverflowCallback(), Timer1_DefaultOverflowCallback(), LAB_ISR(), 

    Timer0_OverflowCallback	PTR FTN()void  size(2) Largest target is 1
		 -> Timer0_DefaultOverflowCallback(), TMR2_DefaultOverflowCallback(), Timer1_DefaultOverflowCallback(), NULL(), 
		 -> LAB_ISR(), 

    Timer0.Tasks	PTR FTN()void  size(2) Largest target is 1
		 -> TMR2_Tasks(), Timer1_Tasks(), NULL(), 

    Timer0.TimeoutCallbackRegister	PTR FTN(PTR FTN()void ,)void  size(2) Largest target is 1
		 -> TMR2_OverflowCallbackRegister(), Timer1_OverflowCallbackRegister(), Timer0_OverflowCallbackRegister(), 

    Timer0.PeriodCountSet	PTR FTN(unsigned int ,)void  size(2) Largest target is 1
		 -> Timer0_Reload(), TMR2_PeriodCountSet(), Timer1_Write(), 

    Timer0.Stop	PTR FTN()void  size(2) Largest target is 1
		 -> Timer0_Stop(), TMR2_Stop(), Timer1_Stop(), 

    Timer0.Start	PTR FTN()void  size(2) Largest target is 1
		 -> Timer0_Start(), TMR2_Start(), Timer1_Start(), 

    Timer0.Initialize	PTR FTN()void  size(2) Largest target is 1
		 -> TMR2_Initialize(), Timer1_Initialize(), Timer0_Initialize(), 

    TMR2_OverflowCallbackRegister@InterruptHandler	PTR FTN()void  size(2) Largest target is 1
		 -> Timer0_DefaultOverflowCallback(), TMR2_DefaultOverflowCallback(), Timer1_DefaultOverflowCallback(), LAB_ISR(), 

    TMR2_OverflowCallback	PTR FTN()void  size(2) Largest target is 1
		 -> Timer0_DefaultOverflowCallback(), TMR2_DefaultOverflowCallback(), Timer1_DefaultOverflowCallback(), NULL(), 
		 -> LAB_ISR(), 

    tmr2.Tasks	PTR FTN()void  size(2) Largest target is 1
		 -> TMR2_Tasks(), Timer1_Tasks(), NULL(), 

    tmr2.TimeoutCallbackRegister	PTR FTN(PTR FTN()void ,)void  size(2) Largest target is 1
		 -> TMR2_OverflowCallbackRegister(), Timer1_OverflowCallbackRegister(), Timer0_OverflowCallbackRegister(), 

    tmr2.PeriodCountSet	PTR FTN(unsigned int ,)void  size(2) Largest target is 1
		 -> Timer0_Reload(), TMR2_PeriodCountSet(), Timer1_Write(), 

    tmr2.Stop	PTR FTN()void  size(2) Largest target is 1
		 -> Timer0_Stop(), TMR2_Stop(), Timer1_Stop(), 

    tmr2.Start	PTR FTN()void  size(2) Largest target is 1
		 -> Timer0_Start(), TMR2_Start(), Timer1_Start(), 

    tmr2.Initialize	PTR FTN()void  size(2) Largest target is 1
		 -> TMR2_Initialize(), Timer1_Initialize(), Timer0_Initialize(), 

    Timer1_OverflowCallbackRegister@CallbackHandler	PTR FTN()void  size(2) Largest target is 1
		 -> Timer0_DefaultOverflowCallback(), TMR2_DefaultOverflowCallback(), Timer1_DefaultOverflowCallback(), LAB_ISR(), 

    Timer1_OverflowCallback	PTR FTN()void  size(2) Largest target is 1
		 -> Timer0_DefaultOverflowCallback(), TMR2_DefaultOverflowCallback(), Timer1_DefaultOverflowCallback(), NULL(), 
		 -> LAB_ISR(), 

    S1752TMR_INTERFACE$Tasks	PTR FTN()void  size(2) Largest target is 1
		 -> TMR2_Tasks(), Timer1_Tasks(), NULL(), 

    Timer1.Tasks	PTR FTN()void  size(2) Largest target is 1
		 -> TMR2_Tasks(), Timer1_Tasks(), NULL(), 

    S1752TMR_INTERFACE$TimeoutCallbackRegister	PTR FTN(PTR FTN()void ,)void  size(2) Largest target is 1
		 -> TMR2_OverflowCallbackRegister(), Timer1_OverflowCallbackRegister(), Timer0_OverflowCallbackRegister(), 

    Timer1.TimeoutCallbackRegister	PTR FTN(PTR FTN()void ,)void  size(2) Largest target is 1
		 -> TMR2_OverflowCallbackRegister(), Timer1_OverflowCallbackRegister(), Timer0_OverflowCallbackRegister(), 

    S1752TMR_INTERFACE$PeriodCountSet	PTR FTN(unsigned int ,)void  size(2) Largest target is 1
		 -> Timer0_Reload(), TMR2_PeriodCountSet(), Timer1_Write(), 

    Timer1.PeriodCountSet	PTR FTN(unsigned int ,)void  size(2) Largest target is 1
		 -> Timer0_Reload(), TMR2_PeriodCountSet(), Timer1_Write(), 

    S1752TMR_INTERFACE$Stop	PTR FTN()void  size(2) Largest target is 1
		 -> Timer0_Stop(), TMR2_Stop(), Timer1_Stop(), 

    Timer1.Stop	PTR FTN()void  size(2) Largest target is 1
		 -> Timer0_Stop(), TMR2_Stop(), Timer1_Stop(), 

    S1752TMR_INTERFACE$Start	PTR FTN()void  size(2) Largest target is 1
		 -> Timer0_Start(), TMR2_Start(), Timer1_Start(), 

    Timer1.Start	PTR FTN()void  size(2) Largest target is 1
		 -> Timer0_Start(), TMR2_Start(), Timer1_Start(), 

    S1752TMR_INTERFACE$Initialize	PTR FTN()void  size(2) Largest target is 1
		 -> TMR2_Initialize(), Timer1_Initialize(), Timer0_Initialize(), 

    Timer1.Initialize	PTR FTN()void  size(2) Largest target is 1
		 -> TMR2_Initialize(), Timer1_Initialize(), Timer0_Initialize(), 

    INT2_SetInterruptHandler@InterruptHandler	PTR FTN()void  size(2) Largest target is 1
		 -> INT2_DefaultInterruptHandler(), 

    INT2_InterruptHandler	PTR FTN()void  size(2) Largest target is 1
		 -> NULL(), INT2_DefaultInterruptHandler(), 

    INT1_SetInterruptHandler@InterruptHandler	PTR FTN()void  size(2) Largest target is 1
		 -> INT1_DefaultInterruptHandler(), 

    INT1_InterruptHandler	PTR FTN()void  size(2) Largest target is 1
		 -> NULL(), INT1_DefaultInterruptHandler(), 

    INT0_SetInterruptHandler@InterruptHandler	PTR FTN()void  size(2) Largest target is 1
		 -> INT0_DefaultInterruptHandler(), 

    INT0_InterruptHandler	PTR FTN()void  size(2) Largest target is 1
		 -> NULL(), INT0_DefaultInterruptHandler(), 

    PWM1_16BIT_Period_SetInterruptHandler@InterruptHandler	PTR FTN()void  size(2) Largest target is 1
		 -> PWM1_16BIT_Period_DefaultInterruptHandler(), 

    PWM1_16BIT_Slice1Output2_SetInterruptHandler@InterruptHandler	PTR FTN()void  size(2) Largest target is 1
		 -> PWM1_16BIT_Slice1Output2_DefaultInterruptHandler(), 

    PWM1_16BIT_Slice1Output1_SetInterruptHandler@InterruptHandler	PTR FTN()void  size(2) Largest target is 1
		 -> PWM1_16BIT_Slice1Output1_DefaultInterruptHandler(), 

    PWM1_16BIT_Period_InterruptHandler	PTR FTN()void  size(2) Largest target is 1
		 -> NULL(), PWM1_16BIT_Period_DefaultInterruptHandler(), 

    PWM1_16BIT_Slice1Output2_InterruptHandler	PTR FTN()void  size(2) Largest target is 1
		 -> NULL(), PWM1_16BIT_Slice1Output2_DefaultInterruptHandler(), 

    PWM1_16BIT_Slice1Output1_InterruptHandler	PTR FTN()void  size(2) Largest target is 1
		 -> NULL(), PWM1_16BIT_Slice1Output1_DefaultInterruptHandler(), 


Critical Paths under _main in COMRAM

    _main->_VSR
    _VSR->_printf
    _SYSTEM_Initialize->_Timer1_Initialize
    _UART1_Initialize->_UART1_FramingErrorCallbackRegister
    _UART1_Initialize->_UART1_OverrunErrorCallbackRegister
    _UART1_Initialize->_UART1_ParityErrorCallbackRegister
    _Timer1_Initialize->_Timer1_OverflowCallbackRegister
    _Timer0_Initialize->_Timer0_OverflowCallbackRegister
    _TMR2_Initialize->_TMR2_OverflowCallbackRegister
    _PWM1_16BIT_Initialize->_PWM1_16BIT_Period_SetInterruptHandler
    _PWM1_16BIT_Initialize->_PWM1_16BIT_Slice1Output1_SetInterruptHandler
    _PWM1_16BIT_Initialize->_PWM1_16BIT_Slice1Output2_SetInterruptHandler
    _INTERRUPT_Initialize->_INT0_SetInterruptHandler
    _INTERRUPT_Initialize->_INT1_SetInterruptHandler
    _INTERRUPT_Initialize->_INT2_SetInterruptHandler
    _PWM->_printf
    _Interrupt->_Timer0_OverflowCallbackRegister
    _EEPROM->_printf
    _Timer1_Reload->_Timer1_Write
    _ADC->_printf
    _printf->_vfprintf
    _vfprintf->_vfpfcnvrt
    _vfpfcnvrt->_dtoa
    _dtoa->_pad
    _pad->_fputs
    _fputs->_fputc
    _fputc->_putch
    _putch->_UART1_IsTxReady
    _putch->_UART1_Write
    _abs->___awmod

Critical Paths under _INTERRUPT_InterruptManager in COMRAM

    _Timer0_OverflowISR->_LAB_ISR

Critical Paths under _main in BANK5

    None.

Critical Paths under _INTERRUPT_InterruptManager in BANK5

    None.

Critical Paths under _main in BANK6

    None.

Critical Paths under _INTERRUPT_InterruptManager in BANK6

    None.

Critical Paths under _main in BANK7

    None.

Critical Paths under _INTERRUPT_InterruptManager in BANK7

    None.

Critical Paths under _main in BANK8

    None.

Critical Paths under _INTERRUPT_InterruptManager in BANK8

    None.

Critical Paths under _main in BANK9

    None.

Critical Paths under _INTERRUPT_InterruptManager in BANK9

    None.

Critical Paths under _main in BANK10

    None.

Critical Paths under _INTERRUPT_InterruptManager in BANK10

    None.

Critical Paths under _main in BANK11

    None.

Critical Paths under _INTERRUPT_InterruptManager in BANK11

    None.

Critical Paths under _main in BANK12

    None.

Critical Paths under _INTERRUPT_InterruptManager in BANK12

    None.

Critical Paths under _main in BANK13

    None.

Critical Paths under _INTERRUPT_InterruptManager in BANK13

    None.

Critical Paths under _main in BANK14

    None.

Critical Paths under _INTERRUPT_InterruptManager in BANK14

    None.

Critical Paths under _main in BANK15

    None.

Critical Paths under _INTERRUPT_InterruptManager in BANK15

    None.

Critical Paths under _main in BANK16

    None.

Critical Paths under _INTERRUPT_InterruptManager in BANK16

    None.

Critical Paths under _main in BANK17

    None.

Critical Paths under _INTERRUPT_InterruptManager in BANK17

    None.

Critical Paths under _main in BANK18

    None.

Critical Paths under _INTERRUPT_InterruptManager in BANK18

    None.

Critical Paths under _main in BANK19

    None.

Critical Paths under _INTERRUPT_InterruptManager in BANK19

    None.

Critical Paths under _main in BANK20

    None.

Critical Paths under _INTERRUPT_InterruptManager in BANK20

    None.

Call Graph Tables:

 ---------------------------------------------------------------------------------
 (Depth) Function   	        Calls       Base Space   Used Autos Params    Refs
 ---------------------------------------------------------------------------------
 (0) _main                                                 2     2      0   25585
                                             76 COMRAM     2     2      0
                                _ADC
                              _Blink
                             _EEPROM
                         _HelloWorld
                          _Interrupt
                                _PWM
                             _Rotate
                  _SYSTEM_Initialize
                        _SleepWakeUp
                         _Timer1_Lab
                                _VSR
                      _checkButtonS1
                            _nextLab
 ---------------------------------------------------------------------------------
 (1) _nextLab                                              0     0      0       0
 ---------------------------------------------------------------------------------
 (1) _checkButtonS1                                        1     1      0       0
                                              3 COMRAM     1     1      0
 ---------------------------------------------------------------------------------
 (1) _VSR                                                  3     3      0    5780
                                             73 COMRAM     3     3      0
           _ADCC_GetSingleConversion
                             _printf
 ---------------------------------------------------------------------------------
 (1) _Timer1_Lab                                           1     1      0     164
                                              5 COMRAM     1     1      0
                      _Timer1_Reload
                       _Timer1_Start
                        _Timer1_Stop
 ---------------------------------------------------------------------------------
 (1) _SleepWakeUp                                          0     0      0       0
 ---------------------------------------------------------------------------------
 (1) _SYSTEM_Initialize                                    0     0      0    1318
                    _ADCC_Initialize
                   _CLOCK_Initialize
               _INTERRUPT_Initialize
                     _NVM_Initialize
             _PIN_MANAGER_Initialize
              _PWM1_16BIT_Initialize
                    _TMR2_Initialize
                  _Timer0_Initialize
                  _Timer1_Initialize
                   _UART1_Initialize
 ---------------------------------------------------------------------------------
 (2) _UART1_Initialize                                     0     0      0     360
 _UART1_FramingErrorCallbackRegister
 _UART1_OverrunErrorCallbackRegister
  _UART1_ParityErrorCallbackRegister
 ---------------------------------------------------------------------------------
 (3) _UART1_ParityErrorCallbackRegister                    2     0      2     120
                                              3 COMRAM     2     0      2
 ---------------------------------------------------------------------------------
 (3) _UART1_OverrunErrorCallbackRegister                   2     0      2     120
                                              3 COMRAM     2     0      2
 ---------------------------------------------------------------------------------
 (3) _UART1_FramingErrorCallbackRegister                   2     0      2     120
                                              3 COMRAM     2     0      2
 ---------------------------------------------------------------------------------
 (2) _Timer1_Initialize                                    2     2      0      98
                                              5 COMRAM     2     2      0
    _Timer1_OverflowCallbackRegister
 ---------------------------------------------------------------------------------
 (3) _Timer1_OverflowCallbackRegister                      2     0      2      98
                                              3 COMRAM     2     0      2
 ---------------------------------------------------------------------------------
 (2) _Timer0_Initialize                                    0     0      0     174
    _Timer0_OverflowCallbackRegister
 ---------------------------------------------------------------------------------
 (2) _TMR2_Initialize                                      0     0      0      98
      _TMR2_OverflowCallbackRegister
 ---------------------------------------------------------------------------------
 (3) _TMR2_OverflowCallbackRegister                        2     0      2      98
                                              3 COMRAM     2     0      2
 ---------------------------------------------------------------------------------
 (2) _PWM1_16BIT_Initialize                                0     0      0     294
_PWM1_16BIT_Period_SetInterruptHandl
_PWM1_16BIT_Slice1Output1_SetInterru
_PWM1_16BIT_Slice1Output2_SetInterru
 ---------------------------------------------------------------------------------
 (3) _PWM1_16BIT_Slice1Output2_SetInterruptHandler         2     0      2      98
                                              3 COMRAM     2     0      2
 ---------------------------------------------------------------------------------
 (3) _PWM1_16BIT_Slice1Output1_SetInterruptHandler         2     0      2      98
                                              3 COMRAM     2     0      2
 ---------------------------------------------------------------------------------
 (3) _PWM1_16BIT_Period_SetInterruptHandler                2     0      2      98
                                              3 COMRAM     2     0      2
 ---------------------------------------------------------------------------------
 (2) _PIN_MANAGER_Initialize                               0     0      0       0
 ---------------------------------------------------------------------------------
 (2) _NVM_Initialize                                       0     0      0       0
                    _NVM_StatusClear
 ---------------------------------------------------------------------------------
 (3) _NVM_StatusClear                                      0     0      0       0
 ---------------------------------------------------------------------------------
 (2) _INTERRUPT_Initialize                                 0     0      0     294
           _INT0_SetInterruptHandler
           _INT1_SetInterruptHandler
           _INT2_SetInterruptHandler
 ---------------------------------------------------------------------------------
 (3) _INT2_SetInterruptHandler                             2     0      2      98
                                              3 COMRAM     2     0      2
 ---------------------------------------------------------------------------------
 (3) _INT1_SetInterruptHandler                             2     0      2      98
                                              3 COMRAM     2     0      2
 ---------------------------------------------------------------------------------
 (3) _INT0_SetInterruptHandler                             2     0      2      98
                                              3 COMRAM     2     0      2
 ---------------------------------------------------------------------------------
 (2) _CLOCK_Initialize                                     0     0      0       0
 ---------------------------------------------------------------------------------
 (2) _ADCC_Initialize                                      0     0      0       0
 ---------------------------------------------------------------------------------
 (1) _Rotate                                               1     1      0       0
                                              3 COMRAM     1     1      0
 ---------------------------------------------------------------------------------
 (1) _PWM                                                  0     0      0    5900
           _ADCC_GetSingleConversion
                 _PWM1_16BIT_Disable
                  _PWM1_16BIT_Enable
     _PWM1_16BIT_LoadBufferRegisters
_PWM1_16BIT_SetSlice1Output1DutyCycl
                         _TMR2_Start
                          _TMR2_Stop
                             _printf
 ---------------------------------------------------------------------------------
 (2) _TMR2_Stop                                            0     0      0       0
 ---------------------------------------------------------------------------------
 (2) _TMR2_Start                                           0     0      0       0
 ---------------------------------------------------------------------------------
 (2) _PWM1_16BIT_SetSlice1Output1DutyCycleRegister         2     0      2     120
                                              3 COMRAM     2     0      2
 ---------------------------------------------------------------------------------
 (2) _PWM1_16BIT_LoadBufferRegisters                       0     0      0       0
 ---------------------------------------------------------------------------------
 (2) _PWM1_16BIT_Enable                                    0     0      0       0
 ---------------------------------------------------------------------------------
 (2) _PWM1_16BIT_Disable                                   0     0      0       0
 ---------------------------------------------------------------------------------
 (1) _Interrupt                                            0     0      0     174
    _Timer0_OverflowCallbackRegister
 ---------------------------------------------------------------------------------
 (3) _Timer0_OverflowCallbackRegister                      2     0      2     174
                                              3 COMRAM     2     0      2
 ---------------------------------------------------------------------------------
 (1) _HelloWorld                                           0     0      0       0
 ---------------------------------------------------------------------------------
 (1) _EEPROM                                               1     1      0    6305
                                             73 COMRAM     1     1      0
           _ADCC_GetSingleConversion
                        _EEPROM_Read
                       _EEPROM_Write
                 _NVM_UnlockKeyClear
                   _NVM_UnlockKeySet
                             _printf
 ---------------------------------------------------------------------------------
 (2) _NVM_UnlockKeySet                                     2     0      2     120
                                              3 COMRAM     2     0      2
 ---------------------------------------------------------------------------------
 (2) _NVM_UnlockKeyClear                                   0     0      0       0
 ---------------------------------------------------------------------------------
 (2) _EEPROM_Write                                         8     4      4     263
                                              3 COMRAM     8     4      4
 ---------------------------------------------------------------------------------
 (2) _EEPROM_Read                                          6     3      3     142
                                              3 COMRAM     6     3      3
 ---------------------------------------------------------------------------------
 (1) _Blink                                                1     1      0     164
                                              5 COMRAM     1     1      0
                      _Timer1_Reload
                       _Timer1_Start
                        _Timer1_Stop
 ---------------------------------------------------------------------------------
 (2) _Timer1_Stop                                          0     0      0       0
 ---------------------------------------------------------------------------------
 (2) _Timer1_Start                                         0     0      0       0
 ---------------------------------------------------------------------------------
 (2) _Timer1_Reload                                        0     0      0     164
                       _Timer1_Write
 ---------------------------------------------------------------------------------
 (3) _Timer1_Write                                         2     0      2     164
                                              3 COMRAM     2     0      2
 ---------------------------------------------------------------------------------
 (1) _ADC                                                  1     1      0    5780
                                             73 COMRAM     1     1      0
           _ADCC_GetSingleConversion
                             _printf
 ---------------------------------------------------------------------------------
 (2) _printf                                               8     4      4    5758
                                             67 COMRAM     6     2      4
                           _vfprintf
 ---------------------------------------------------------------------------------
 (3) _vfprintf                                             8     2      6    5400
                                             59 COMRAM     8     2      6
                          _vfpfcnvrt
 ---------------------------------------------------------------------------------
 (4) _vfpfcnvrt                                           19    13      6    5050
                                             45 COMRAM    14     8      6
                               _dtoa
                              _fputc
 ---------------------------------------------------------------------------------
 (5) _dtoa                                                13     9      4    3762
                                             32 COMRAM    13     9      4
                            ___awdiv
                            ___awmod
                                _abs
                                _pad
 ---------------------------------------------------------------------------------
 (6) _pad                                                 11     5      6    2135
                                             21 COMRAM    11     5      6
                              _fputc
                              _fputs
 ---------------------------------------------------------------------------------
 (7) _fputs                                                7     3      4     999
                                             14 COMRAM     7     3      4
                              _fputc
 ---------------------------------------------------------------------------------
 (5) _fputc                                                9     5      4     750
                                              5 COMRAM     9     5      4
                              _putch
 ---------------------------------------------------------------------------------
 (6) _putch                                                1     1      0      68
                                              4 COMRAM     1     1      0
                    _UART1_IsTxReady
                        _UART1_Write
 ---------------------------------------------------------------------------------
 (7) _UART1_Write                                          1     1      0      22
                                              3 COMRAM     1     1      0
 ---------------------------------------------------------------------------------
 (7) _UART1_IsTxReady                                      1     1      0      24
                                              3 COMRAM     1     1      0
 ---------------------------------------------------------------------------------
 (6) _abs                                                  4     2      2     142
                                              9 COMRAM     4     2      2
                            ___awmod (ARG)
 ---------------------------------------------------------------------------------
 (6) ___awmod                                              6     2      4     448
                                              3 COMRAM     6     2      4
 ---------------------------------------------------------------------------------
 (6) ___awdiv                                              8     4      4     452
                                              3 COMRAM     8     4      4
 ---------------------------------------------------------------------------------
 (2) _ADCC_GetSingleConversion                             5     3      2      22
                                              3 COMRAM     5     3      2
 ---------------------------------------------------------------------------------
 Estimated maximum stack depth 7
 ---------------------------------------------------------------------------------
 (Depth) Function   	        Calls       Base Space   Used Autos Params    Refs
 ---------------------------------------------------------------------------------
 (11) _INTERRUPT_InterruptManager                          2     2      0       0
                                              1 COMRAM     2     2      0
                    _PIN_MANAGER_IOC
                 _Timer0_OverflowISR
 ---------------------------------------------------------------------------------
 (12) _Timer0_OverflowISR                                  0     0      0       0
                                NULL *
                            _LAB_ISR *
       _TMR2_DefaultOverflowCallback *
     _Timer0_DefaultOverflowCallback *
     _Timer1_DefaultOverflowCallback *
 ---------------------------------------------------------------------------------
 (13) _Timer1_DefaultOverflowCallback                      0     0      0       0
 ---------------------------------------------------------------------------------
 (13) _Timer0_DefaultOverflowCallback                      0     0      0       0
 ---------------------------------------------------------------------------------
 (13) _TMR2_DefaultOverflowCallback                        0     0      0       0
 ---------------------------------------------------------------------------------
 (13) _LAB_ISR                                             1     1      0       0
                                              0 COMRAM     1     1      0
 ---------------------------------------------------------------------------------
 (13) NULL(Fake)                                           0     0      0       0
 ---------------------------------------------------------------------------------
 (12) _PIN_MANAGER_IOC                                     0     0      0       0
 ---------------------------------------------------------------------------------
 Estimated maximum stack depth 13
 ---------------------------------------------------------------------------------

 Call Graph Graphs:

 _main (ROOT)
   _ADC
     _ADCC_GetSingleConversion
     _printf
       _vfprintf
         _vfpfcnvrt
           _dtoa
             ___awdiv
             ___awmod
             _abs
               ___awmod (ARG)
             _pad
               _fputc
                 _putch
                   _UART1_IsTxReady
                   _UART1_Write
               _fputs
                 _fputc
           _fputc
   _Blink
     _Timer1_Reload
       _Timer1_Write
     _Timer1_Start
     _Timer1_Stop
   _EEPROM
     _ADCC_GetSingleConversion
     _EEPROM_Read
     _EEPROM_Write
     _NVM_UnlockKeyClear
     _NVM_UnlockKeySet
     _printf
   _HelloWorld
   _Interrupt
     _Timer0_OverflowCallbackRegister
   _PWM
     _ADCC_GetSingleConversion
     _PWM1_16BIT_Disable
     _PWM1_16BIT_Enable
     _PWM1_16BIT_LoadBufferRegisters
     _PWM1_16BIT_SetSlice1Output1DutyCycleRegister
     _TMR2_Start
     _TMR2_Stop
     _printf
   _Rotate
   _SYSTEM_Initialize
     _ADCC_Initialize
     _CLOCK_Initialize
     _INTERRUPT_Initialize
       _INT0_SetInterruptHandler
       _INT1_SetInterruptHandler
       _INT2_SetInterruptHandler
     _NVM_Initialize
       _NVM_StatusClear
     _PIN_MANAGER_Initialize
     _PWM1_16BIT_Initialize
       _PWM1_16BIT_Period_SetInterruptHandler
       _PWM1_16BIT_Slice1Output1_SetInterruptHandler
       _PWM1_16BIT_Slice1Output2_SetInterruptHandler
     _TMR2_Initialize
       _TMR2_OverflowCallbackRegister
     _Timer0_Initialize
       _Timer0_OverflowCallbackRegister
     _Timer1_Initialize
       _Timer1_OverflowCallbackRegister
     _UART1_Initialize
       _UART1_FramingErrorCallbackRegister
       _UART1_OverrunErrorCallbackRegister
       _UART1_ParityErrorCallbackRegister
   _SleepWakeUp
   _Timer1_Lab
     _Timer1_Reload
     _Timer1_Start
     _Timer1_Stop
   _VSR
     _ADCC_GetSingleConversion
     _printf
   _checkButtonS1
   _nextLab

 _INTERRUPT_InterruptManager (ROOT)
   _PIN_MANAGER_IOC
   _Timer0_OverflowISR
     NULL(Fake) *
     _LAB_ISR *
     _TMR2_DefaultOverflowCallback *
     _Timer0_DefaultOverflowCallback *
     _Timer1_DefaultOverflowCallback *

 Address spaces:
Name               Size   Autos  Total    Cost      Usage
BIGRAM             FFF      0       0      37        0.0%
EEDATA             200      0       0       0        0.0%
BITBIGSFRllllhh    162      0       0      56        0.0%
BITBIGSFR_1        100      0       0      36        0.0%
BITBANK20          100      0       0      34        0.0%
BANK20             100      0       0      35        0.0%
BITBANK19          100      0       0      32        0.0%
BANK19             100      0       0      33        0.0%
BITBANK18          100      0       0      30        0.0%
BANK18             100      0       0      31        0.0%
BITBANK17          100      0       0      28        0.0%
BANK17             100      0       0      29        0.0%
BITBANK16          100      0       0      26        0.0%
BANK16             100      0       0      27        0.0%
BITBANK15          100      0       0      24        0.0%
BANK15             100      0       0      25        0.0%
BITBANK14          100      0       0      22        0.0%
BANK14             100      0       0      23        0.0%
BITBANK13          100      0       0      20        0.0%
BANK13             100      0       0      21        0.0%
BITBANK12          100      0       0      18        0.0%
BANK12             100      0       0      19        0.0%
BITBANK11          100      0       0      16        0.0%
BANK11             100      0       0      17        0.0%
BITBANK10          100      0       0      14        0.0%
BANK10             100      0       0      15        0.0%
BITBANK9           100      0       0      12        0.0%
BANK9              100      0       0      13        0.0%
BITBANK8           100      0       0      10        0.0%
BANK8              100      0       0      11        0.0%
BITBANK7           100      0       0       8        0.0%
BANK7              100      0       0       9        0.0%
BITBANK6           100      0       0       6        0.0%
BANK6              100      0       0       7        0.0%
BITBIGSFRlllhlh     B7      0       0      51        0.0%
BITBANK5            A0      0       0       4        0.0%
BANK5               A0      0      44       5       42.5%
BITCOMRAM           5F      0       0       0        0.0%
COMRAM              5F     4E      5F       1      100.0%
BITBIGSFRlllhlh     5E      0       0      52        0.0%
BITBIGSFRlllhll     5A      0       0      55        0.0%
BITBIGSFRllhlhh     48      0       0      48        0.0%
BITBIGSFRllllll     40      0       0      61        0.0%
BITBIGSFRllhlhh     39      0       0      47        0.0%
BITBIGSFRllllhl     33      0       0      59        0.0%
BITBIGSFRlllllh     30      0       0      60        0.0%
BITBIGSFRhhhl       1E      0       0      39        0.0%
BITBIGSFRlllhlh     19      0       0      53        0.0%
BITBIGSFRlllhll     13      0       0      54        0.0%
BITBIGSFRhhlhl       7      0       0      41        0.0%
BITBIGSFRhhhh        7      0       0      38        0.0%
BITBIGSFRllhhl       6      0       0      45        0.0%
BITBIGSFRhhlhh       5      0       0      40        0.0%
BITBIGSFRllhlhh      5      0       0      49        0.0%
BITBIGSFRhhll        5      0       0      42        0.0%
BITBIGSFRlhh         3      0       0      43        0.0%
BITBIGSFRllhlhh      2      0       0      46        0.0%
BITBIGSFRllllhh      1      0       0      57        0.0%
BITBIGSFRllllhh      1      0       0      58        0.0%
BITBIGSFRllhll       1      0       0      50        0.0%
BITBIGSFRlhl         1      0       0      44        0.0%
BIGSFR_1             0      0       0     200        0.0%
BIGSFR               0      0       0     200        0.0%
BITSFR_6             0      0       0     200        0.0%
SFR_6                0      0       0     200        0.0%
BITSFR_5             0      0       0     200        0.0%
SFR_5                0      0       0     200        0.0%
BITSFR_4             0      0       0     200        0.0%
SFR_4                0      0       0     200        0.0%
BITSFR_3             0      0       0     200        0.0%
SFR_3                0      0       0     200        0.0%
BITSFR_2             0      0       0     200        0.0%
SFR_2                0      0       0     200        0.0%
BITSFR_1             0      0       0     200        0.0%
SFR_1                0      0       0     200        0.0%
BITSFR               0      0       0     200        0.0%
SFR                  0      0       0     200        0.0%
STACK                0      0       0       2        0.0%
NULL                 0      0       0       0        0.0%
ABS                  0      0      A3      62        0.0%
DATA                 0      0      A3       3        0.0%
CODE                 0      0       0       0        0.0%


Microchip Technology PIC18 Macro Assembler V2.41 build 20230208172133 
Symbol Table                                                                                   Fri Jun 16 14:27:43 2023

                            fp__TMR2_OverflowCallbackRegister 0000  
                              ?_TMR2_OverflowCallbackRegister 0504  
                                                          l21 27BA  
                                                          l24 27D0  
                                                          l19 27A6  
                                                          l55 2144  
                                                          l64 21AC  
                                                          l58 2152  
                                                          l90 1DF0  
                                                          l93 1E04  
                                                          l89 1D42  
                                                ___awdiv@sign 0509  
                                        ??_Timer0_OverflowISR 0502  
                                                         l120 1E1C  
                                                         l123 1ED6  
                                                         l205 223A  
                                                         l241 1B96  
                                                         l161 1A4A  
                                                         l154 193E  
                                                         l155 1A36  
                                                         l236 1B6C  
                                                         l325 26FC  
                                                         l245 1C3E  
                                                         l237 1C26  
                                                         l326 26FE  
                                                         l318 26D2  
                                                         l238 1B88  
                                                         l327 2704  
                                                         _ADC 1E06  
                                                         l353 256C  
                                                         l603 2B34  
                                                         l606 2B16  
                                                         l390 1A62  
                                                         l711 24B4  
                                                         l609 2B20  
                                                         l393 1B52  
                                                         l650 25C4  
                                                         l714 2B54  
                                                         l491 28D0  
                                                         l723 2B02  
                                                         l476 2514  
                                                         l717 2B58  
                                                         l750 2ADA  
                                                         l647 28A2  
                                                         l488 28B0  
                                                         l592 2B2E  
                                                         l744 2AD0  
                                                         l729 2B50  
                                                         l747 2AC6  
                                                         l844 2844  
                                                         l774 2A9A  
                                                         l863 2AF8  
                                                         l963 22C6  
                                                         l876 2AEE  
                                                         l797 2926  
                                                         l889 2AE4  
                                                         _PR2 031D  
                                                         u450 27A0  
                                                         u451 279C  
                                                         u460 27BA  
                                                         u540 1D3A  
                                                         u461 27B6  
                                                         u541 1D36  
                                                         u470 27CC  
                                                         u550 1D5A  
                                                         u471 27C8  
                                                         u551 1D56  
                                                         u560 1D7E  
                                                         u561 1D7A  
                                                         u570 1E00  
                                                         u571 1DFC  
                                                         u900 2A26  
                                                         u901 2A22  
                                                         u770 2526  
                                                         u771 2522  
                                                         u780 254C  
                                                         u781 2548  
                                                         u790 2568  
                                                         u870 267C  
                                                         u791 2564  
                                                         u871 2678  
                                                         u880 268A  
                                                         u881 2686  
                                                         u890 26B0  
                                                         u891 26AC  
                                                         _PWM 21AE  
                                                         _VSR 1928  
                                  ??_INT0_SetInterruptHandler 0506  
                                             _timer1ReloadVal 056E  
                                                         _abs 27D2  
                                                         _pad 23CE  
                                                ___awmod@sign 0509  
                                             _TMR2_Initialize 2928  
                                                         tosl 04FD  
                                                         wreg 04E8  
                                              _UART1_IsTxDone 0000  
                                             __end_of_LAB_ISR 2350  
                      __end_of_Timer1_DefaultOverflowCallback 2B60  
                              _Timer1_DefaultOverflowCallback 2B5E  
                                                        ?_ADC 0501  
                                    _UART1_ParityErrorHandler 0564  
                                              _UART1_ErrorGet 0000  
                                                        ?_PWM 0501  
                            ??_PWM1_16BIT_LoadBufferRegisters 0504  
                             ?_PWM1_16BIT_LoadBufferRegisters 0501  
                                                        ?_VSR 0501  
                                                        l1012 2B4C  
                                                        l1023 297A  
                                                        l1015 2B46  
                                                        l1120 2ABC  
                                                        l1105 2B40  
                                                        l1009 274A  
                                                        l1026 2AA8  
                                                        ?_abs 050A  
                                                        l1108 2B3A  
                                                        l1038 2AB2  
                                                        l1400 2A46  
                                                        l3000 2A16  
                                                        l3002 2A26  
                                                        l2211 1926  
                                                        l2204 17FA  
                                                        l2221 2808  
                                                        l1350 29A2  
                                                        l1351 29A4  
                                                        l2224 2810  
                                                        l4000 1E06  
                                                        l1096 2950  
                                                        l2217 266A  
                                                        l1177 29CA  
                                                        l4010 1E40  
                                                        l4002 1E16  
                                                        l2236 1FA0  
                                                        l2244 278E  
                                                        l4012 1E54  
                                                        l4020 1EC2  
                                                        l4004 1E1A  
                                                        l4100 1B9C  
                                                        l2181 23F0  
                                                        l2190 16B0  
                                                        l4022 1ED2  
                                                        l4014 1E6A  
                                                        l4006 1E20  
                                                        l4110 1BE6  
                                                        l4102 1BA2  
                                                        l4030 1946  
                                                        l1470 26A2  
                                                        l1367 2B28  
                                                        l2159 29F0  
                                                        l1199 2B0C  
                                                        l1712 2064  
                                                        l2192 16B8  
                                                        l4016 1E82  
                                                        l4008 1E30  
                                                        l2520 2B48  
                                                        l4120 26CA  
                                                        l1392 2A7E  
                                                        l4112 1C04  
                                                        l4104 1BB4  
                                                        l4040 199A  
                                                        l4032 1956  
                                                        l4024 1928  
                                                        l2185 2446  
                                                        l2193 16FE  
                                                        l4018 1EA0  
                                                        l4130 26DA  
                                                        l4122 26CE  
                                                        l4050 21BE  
                                                        l2610 2512  
                                                        l4114 1C36  
                                                        l4106 1BB8  
                                                        l4042 19AC  
                                                        l4034 1966  
                                                        l4026 1938  
                                                        l1474 26B8  
                                                        l1379 2A0E  
                                                        l1299 23CC  
                                                        l2524 2B42  
                                                        l2604 2B18  
                                                        l2700 27A0  
                                                        l4140 2700  
                                                        l4132 26DC  
                                                        l4124 26D0  
                                                        l4060 21D2  
                                                        l4052 21C2  
                                                        l2612 2B2A  
                                                        l1396 2A62  
                                                        l4116 1C3A  
                                                        l4108 1BCE  
                                                        l4044 1A32  
                                                        l4036 1992  
                                                        l4028 193C  
                                                        l1725 2114  
                                                        l4150 1A76  
                                                        l4142 1A4C  
                                                        l2702 27A4  
                                                        l4134 26E8  
                                                        l4126 26D6  
                                                        l4118 26BA  
                                                        l4070 2214  
                                                        l4054 21C4  
                                                        l4062 21D6  
                                                        l2606 24B6  
                                                        l4046 1A46  
                                                        l1478 2A2A  
                                                        l3600 1FF4  
                                                        l4160 1ACC  
                                                        l4152 1A82  
                                                        l4144 1A5C  
                                                        l2704 27AA  
                                                        l4128 26D8  
                                                        l4080 2236  
                                                        l4064 21E6  
                                                        l4072 2218  
                                                        l4056 21C8  
                                                        l4048 21AE  
                                                        l2608 2510  
                                                        l2640 2282  
                                                        l3610 202E  
                                                        l3602 1FFC  
                                                        l4162 1AD0  
                                                        l4154 1A92  
                                                        l4170 1B3E  
                                                        l4146 1A60  
                                                        l2706 27BC  
                                                        l4138 26EC  
                                                        l4074 2228  
                                                        l4066 21F4  
                                                        l4058 21CE  
                                                        l2466 2B30  
                                                        l2642 228C  
                                                        l4090 1B70  
                                                        l4082 1B54  
                                                        l4330 1C4A  
                                                        l3620 2054  
                                                        l3612 2036  
                                                        l3604 2004  
                                                        l3540 297C  
                                                        l3700 16FA  
                                                        l4172 1B4E  
                                                        l4164 1AE6  
                                                        l4156 1AA6  
                                                        l4148 1A66  
                                                        l2708 27CC  
                                                        l4076 222C  
                                                        l4068 2208  
                                                        l2740 1D2A  
                                                        l2636 2A80  
                                                        l4180 2912  
                                                        l4092 1B74  
                                                        l4084 1B64  
                                                        l4340 1C6C  
                                                        l4332 1C4C  
                                                        l3622 205C  
                                                        l3614 2038  
                                                        l3606 2012  
                                                        l3630 2078  
                                                        l3542 2980  
                                                        l3550 2B24  
                                                        l3710 174C  
                                                        l3702 1706  
                                                        l4166 1AFE  
                                                        l4158 1ABA  
                                                        l4078 2230  
                                                        l2750 1D5A  
                                                        l2742 1D3A  
                                                        l2638 223C  
                                                        l4182 2916  
                                                        l4174 28FE  
                                                        l2910 2516  
                                                        l4086 1B68  
                                                        l4094 1B78  
                                                        l4350 1C94  
                                                        l4342 1C74  
                                                        l4334 1C54  
                                                        l4326 1C40  
                                                        l3616 203E  
                                                        l3608 2018  
                                                        l3640 20AC  
                                                        l3632 2080  
                                                        l3544 2990  
                                                        l3552 29F4  
                                                        l3560 1ED8  
                                                        l3720 17B4  
                                                        l3712 1752  
                                                        l3704 170E  
                                                        l4168 1B1C  
                                                        l2760 1D98  
                                                        l2752 1D68  
                                                        l2744 1D3E  
                                                        l3800 2A2C  
                                                        l4184 291A  
                                                        l4176 290A  
                                                        l2920 2558  
                                                        l2912 2526  
                                                        l4088 1B6A  
                                                        l4360 1D1E  
                                                        l4352 1C9C  
                                                        l4344 1C7C  
                                                        l4336 1C5C  
                                                        l4328 1C44  
                                                        l3618 2044  
                                                        l3650 20E8  
                                                        l3642 20B4  
                                                        l3634 2084  
                                                        l3626 2066  
                                                        l3546 299E  
                                                        l3554 29F4  
                                                        l3570 1F5A  
                                                        l3562 1EEA  
                                                        l3722 17C4  
                                                        l3706 1714  
                                                        l3714 176E  
                                                        l3730 17FC  
                                                        l3810 2662  
                                                        l2762 1DB0  
                                                        l2754 1D6C  
                                                        l2746 1D40  
                                                        l3802 2A3E  
                                                        l4186 291E  
                                                        l4178 290E  
                                                        l2922 2568  
                                                        l2914 2538  
                                                        l4098 1B98  
                                                        l4346 1C84  
                                                        l4338 1C64  
                                                        l3820 28AE  
                                                        l3652 20EE  
                                                        l3644 20BC  
                                                        l3636 2092  
                                                        l3628 206A  
                                                        l3556 2A08  
                                                        l3564 1EFC  
                                                        l3580 276E  
                                                        l3724 17CA  
                                                        l3716 1788  
                                                        l3708 1746  
                                                        l3740 1852  
                                                        l3732 1822  
                                                        l3804 261C  
                                                        l2764 1DCE  
                                                        l2756 1D7E  
                                                        l2748 1D4A  
                                                        l3900 2484  
                                                        l4188 2922  
                                                        l2916 253C  
                                                        l4348 1C8C  
                                                        l4356 1CA4  
                                                        l3822 28BE  
                                                        l3590 1FC0  
                                                        l3582 1FA2  
                                                        l3646 20CA  
                                                        l3654 20F4  
                                                        l3638 209A  
                                                        l3566 1F06  
                                                        l3574 274C  
                                                        l3670 2410  
                                                        l3662 23CE  
                                                        l3726 17DA  
                                                        l3718 179A  
                                                        l3750 18EA  
                                                        l3742 1870  
                                                        l3734 1830  
                                                        l3806 2628  
                                                        l3814 2A9C  
                                                        l2766 1E00  
                                                        l2758 1D82  
                                                        l3910 2498  
                                                        l3902 2486  
                                                        l2918 254C  
                                                        l4358 1D0E  
                                                        ?_pad 0516  
                                                        l3816 28A6  
                                                        l3592 1FCE  
                                                        l3584 1FA6  
                                                        l3656 2104  
                                                        l3648 20E0  
                                                        l3568 1F24  
                                                        l3576 2758  
                                                        l3672 2414  
                                                        l3664 23DC  
                                                        l3680 1668  
                                                        l3744 188E  
                                                        l3736 183E  
                                                        l3808 2644  
                                                        l3760 2B04  
                                                        l3832 2B52  
                                                        l3840 2B4E  
                                                        l3912 24A4  
                                                        l3904 2488  
                                                        l3920 29C0  
                                                        l3818 28AA  
                                                        l3594 1FD6  
                                                        l3586 1FB4  
                                                        l3658 210C  
                                                        l3578 276A  
                                                        l3674 2432  
                                                        l3666 23E8  
                                                        l3690 16C0  
                                                        l3682 167C  
                                                        l3746 18D2  
                                                        l3738 1842  
                                                        l3754 18FC  
                                                        l3826 29CC  
                                                        l2698 2790  
                                                        l3834 2B3C  
                                                        l3842 2B36  
                                                        l3770 2AE6  
                                                        l3762 2AC8  
                                                        l3914 24B0  
                                                        l3906 248A  
                                                        l3922 29C2  
                                                        l3930 2734  
                                                        l3596 1FDA  
                                                        l3588 1FBC  
                                                        l3676 27D2  
                                                        l3668 23FC  
                                                        l3692 16D0  
                                                        l3684 168C  
                                                        l3828 29D4  
                                                        l3780 2964  
                                                        l3860 2B0E  
                                                        l3844 2B56  
                                                        l3836 2AFA  
                                                        l3772 2ADC  
                                                        l3764 2ABE  
                                                        l3908 248C  
                                                        l3940 2936  
                                                        l3924 29C4  
                                                        l3916 29A6  
                                                        l3932 2740  
                                                        l3598 1FE2  
                                                        l3678 27EC  
                                                        l3694 16D6  
                                                        l3686 1694  
                                                        l3782 2968  
                                                        l3870 2596  
                                                        l3862 2B12  
                                                        l3838 2AFE  
                                                        l3766 2AD2  
                                                        l3790 2AB4  
                                                        l3942 293C  
                                                        l3918 29B4  
                                                        l3774 2AAA  
                                                        l3934 2742  
                                                        l3926 2706  
                                                        l3950 239E  
                                                        l2990 268A  
                                                        l4398 1CB8  
                                                        l3696 16E6  
                                                        l3688 16A4  
                                                        l3784 296C  
                                                        l3776 2952  
                                                        l3880 25B4  
                                                        l3872 259A  
                                                        l3864 256E  
                                                        l3768 2AF0  
                                                        l3960 2818  
                                                        l3944 2948  
                                                        l3936 2744  
                                                        l3928 271C  
                                                        l3792 2A64  
                                                        l3952 23AA  
                                                        l2992 269A  
                                                        l3698 16F2  
                                                        l3778 2962  
                                                        l3786 2972  
                                                        l3970 2116  
                                                        l3890 289E  
                                                        l3882 25BE  
                                                        l3874 259E  
                                                        l3866 2576  
                                                        l3962 2824  
                                                        l3946 294A  
                                                        l3938 2928  
                                                        l3794 2A76  
                                                        l3954 23B6  
                                                        l2994 26B0  
                                                        l2986 266C  
                                                        l3788 2976  
                                                        l3972 2126  
                                                        l3980 2134  
                                                        l3884 2876  
                                                        l3876 25A6  
                                                        l3868 257A  
                                                        l3964 2826  
                                                        l3796 2A48  
                                                        l3956 23C2  
                                                        l3948 2350  
                                                        l2988 267C  
                                                        l2996 2A10  
                                                        l3990 216C  
                                                        l3974 212A  
                                                        l3886 287A  
                                                        l3878 25AA  
                                                        l3966 2834  
                                                        l3958 2812  
                                                        l3894 2448  
                                                        l3798 2A5A  
                                                        l2998 2A14  
                                                        l3992 2190  
                                                        l3984 2154  
                                                        l3976 212C  
                                                        l3888 2896  
                                                        l3968 2836  
                                                        l3896 2480  
                                                        l3986 2158  
                                                        l3994 2194  
                                                        l3978 2130  
                                                        l3898 2482  
                                                        l3996 21A4  
                                                        l3988 215A  
                                                        l3998 21A8  
                                                        STR_1 1655  
                                                        STR_2 1655  
                                                        STR_3 1655  
                                                        STR_4 1655  
                                                        u2000 21E6  
                                                        u2001 21E2  
                                                        u2010 2228  
                                                        u2011 2224  
                                                        u2100 1A76  
                                                        u2020 1B64  
                                                        u2101 1A72  
                                                        u2021 1B60  
                                                        u2110 1B4E  
                                                        u2030 1B88  
                                                        u2111 1B4A  
                                                        u2031 1B84  
                                                        u1400 2990  
                                                        u2040 1B96  
                                                        u1401 298C  
                                                        u2041 1B92  
                                                        u1410 299E  
                                                        u2050 1BB4  
                                                        u1411 299A  
                                                        u2051 1BB0  
                                                        u1500 1FF4  
                                                        u1420 2A08  
                                                        u2060 1C36  
                                                        u1501 1FF0  
                                                        u1421 2A04  
                                                        u2061 1C32  
                                                        _LATA 04BE  
                                                        u1510 2012  
                                                        u1430 1EEA  
                                                        u2070 26CA  
                                                        _LATB 04BF  
                                                        u1511 200E  
                                                        u1431 1EE6  
                                                        u2071 26C6  
                                                        _LATC 04C0  
                                                        u1520 202E  
                                                        u1440 1EFC  
                                                        u1600 23DC  
                                                        u2080 26FC  
                                                        u1521 202A  
                                                        u1441 1EF8  
                                                        u1601 23D8  
                                                        u2081 26F8  
                                                        u1530 2054  
                                                        u1450 1F24  
                                                        u1610 2432  
                                                        u2090 1A5C  
                                                        u1531 2050  
                                                        u1451 1F20  
                                                        u1611 242E  
                                                        u2091 1A58  
                                                        u1540 2078  
                                                        u1620 27EC  
                                                        u1460 1F5A  
                                                        u1700 179A  
                                                        u1541 2074  
                                                        u1621 27E8  
                                                        u1461 1F56  
                                                        u1701 1796  
                                                        u1550 2092  
                                                        u1470 278E  
                                                        u1710 17B4  
                                                        u1630 1678  
                                                        u1551 208E  
                                                        u1471 278A  
                                                        u1711 17B0  
                                                        u1631 1672  
                                                        u1480 1FB4  
                                                        u1560 20AC  
                                                        u1720 17C4  
                                                        u1640 167A  
                                                        u1800 2662  
                                                        u1481 1FB0  
                                                        u1561 20A8  
                                                        u1721 17C0  
                                                        u1801 265E  
                                                        u1810 28BE  
                                                        u1490 1FCE  
                                                        u1570 20CA  
                                                        u1650 168C  
                                                        u1730 1822  
                                                        _T2PR 031D  
                                                        u1811 28BA  
                                                        u1491 1FCA  
                                                        u1571 20C6  
                                                        u1651 1688  
                                                        u1731 181E  
                                                        u2507 2690  
                                                        u1580 20E0  
                                                        u1660 16A4  
                                                        u1740 1870  
                                                        u1900 1E16  
                                                        u1581 20DC  
                                                        u1661 16A0  
                                                        u1741 186C  
                                                        u1901 1E12  
                                                        u2517 1994  
                                                        u1590 2104  
                                                        u1670 16D0  
                                                        u1750 188E  
                                                        u1910 1E30  
                                                        u1591 2100  
                                                        u1671 16CC  
                                                        u1751 188A  
                                                        u1911 1E2C  
                                                        u2527 1D60  
                                                        u1680 16E6  
                                                        u1920 1ED2  
                                                        u1760 2962  
                                                        u1840 2126  
                                                        u1681 16E2  
                                                        u1921 1ECE  
                                                        u1761 295E  
                                                        u1841 2122  
                                                        u1690 1788  
                                                        u1850 2144  
                                                        u1770 2A76  
                                                        u1930 1938  
                                                        u2490 1D1E  
                                                        u1691 1784  
                                                        u1851 2140  
                                                        u1835 25BC  
                                                        u1771 2A72  
                                                        u1931 1934  
                                                        u2491 1D1A  
                                                        u1860 2152  
                                                        u1836 25BE  
                                                        u1780 2A5A  
                                                        u1940 1956  
                                                        u1861 214E  
                                                        u1781 2A56  
                                                        u1941 1952  
                                                        u1870 216C  
                                                        u1790 2A3E  
                                                        u1871 2168  
                                                        u1791 2A3A  
                                                        u1880 217C  
                                                        u1960 19AC  
                                                        u1881 2176  
                                                        u1961 19A8  
                                                        u1890 21A4  
                                                        u1970 1A32  
                                                        u1891 21A0  
                                                        u1971 1A2E  
                                                        u1955 197A  
                                                        u1980 1A46  
                                                        u1981 1A42  
                                                        u1886 217E  
                                                        u1990 21BE  
                                                        u1991 21BA  
                                                        _TMR2 031C  
                                                        _WPUA 0401  
                                                        _WPUB 0409  
                                                        _WPUC 0411  
                                     __end_of_NVM_StatusClear 2B36  
                                                        abs@a 050A  
                                                        _dbuf 0578  
                                                        _main 1C40  
                                                        _dtoa 1668  
                                                        _tmr2 163D  
                                                        _prec 0562  
                                                        pad@i 051D  
                                                        pad@p 051A  
                                                        fsr1h 04E2  
                                                        fsr2h 04DA  
                                                        indf2 04DF  
                                                        fsr1l 04E1  
                                                        pad@w 051F  
                                                        fsr2l 04D9  
                                                _unlockKeyLow 0551  
                                   ?_INT2_SetInterruptHandler 0504  
                                                        start 001A  
                                             _UART1_IsRxReady 0000  
                                             _UART1_IsTxReady 297C  
                                                 _switchEvent 055E  
                                                ___param_bank 0000  
                                                       ??_ADC 054A  
                                                       ??_PWM 054A  
                                                       ??_VSR 054A  
                                                       ??_abs 050C  
                                     _Timer1_OverflowCallback 059C  
                                        __end_of_EEPROM_Write 25C6  
                                                       ??_pad 051C  
   PWM1_16BIT_SetSlice1Output1DutyCycleRegister@registerValue 0504  
                                                       _ADACT 03F9  
                                                       _ADCAP 03F0  
                                                       ?_main 0501  
                                                       ?_dtoa 0521  
                                                       _ADCLK 03FA  
                                                       _ADCNT 03E6  
                                                       _ADPCH 03EC  
                                                       _ADREF 03F8  
                                             __end_of___awdiv 2066  
                                                       _ADRES 03EA  
                                             __end_of___awmod 2116  
                                                       _ADRPT 03E7  
                                                       _T1CLK 0317  
                                             ___awdiv@divisor 0506  
                                                       _T1CON 0314  
                                                       _U1P1H 02A6  
                                                       _U1P2H 02A8  
                                                       _U1P1L 02A5  
                                                       _U1P3H 02AA  
                                                       _U1P2L 02A7  
                                                       _T2CON 031E  
                                                       _U1P3L 02A9  
                                                       _IOCAF 0407  
                                                       _T2HLT 031F  
                                                       _IOCBF 040F  
                                                       _IOCCF 0417  
                                                       _IOCAN 0406  
                                                       _IOCAP 0405  
                                                       _IOCBN 040E  
                                                       _IOCCN 0416  
                                                       _IOCBP 040D  
                                                       _IOCCP 0415  
                                                       _T2TMR 031C  
                                                       _U1UIR 02B1  
                                                       _T2RST 0321  
                                                       _U1RXB 02A1  
                                                       _U1TXB 02A3  
                                                       i2l331 234E  
                                                       i2l853 2612  
                                      ?_PWM1_16BIT_Initialize 0501  
                                                       i2l849 25F2  
                                             ___awdiv@counter 0508  
                                                       i2l966 2B60  
                                    _rotateReg@Interrupt$F496 0554  
                                                       _OSCEN 00B3  
                                                       _UART1 1601  
                                                vfpfcnvrt@fmt 0530  
                                                       _TMR0H 0319  
                                                       _TMR1H 0313  
                                                       _TMR0L 0318  
                                                       _TMR1L 0312  
                                        _UART1_IsTxReady$2941 0504  
                                                       _TRISA 04C6  
                                                       _TRISB 04C7  
                                                       _TRISC 04C8  
                                                       _Blink 2116  
                                    __end_of_NVM_UnlockKeySet 2B18  
                                                  _HelloWorld 2790  
                       fp__UART1_FramingErrorCallbackRegister 0000  
                  __end_of_UART1_FramingErrorCallbackRegister 2A80  
                        ??_UART1_FramingErrorCallbackRegister 0506  
                         ?_UART1_FramingErrorCallbackRegister 0504  
                          _UART1_FramingErrorCallbackRegister 2A64  
            _PWM1_16BIT_Slice1Output1_DefaultInterruptHandler 0000  
                                                       _delay 0558  
                                     __end_of_PIN_MANAGER_IOC 2B62  
                                                       _flags 054F  
                                                 ?_TMR2_Start 0501  
                                                       _fputc 1ED8  
                                                       _fputs 274C  
                                                       pad@fp 0516  
                                                       _width 0560  
                                             __end_of_nextLab 2A2C  
                                              fp__UART1_Write 0000  
                                                       _putch 29F2  
                                                       dtoa@d 0523  
                                                       dtoa@i 052B  
                                                       dtoa@p 0527  
                                                       dtoa@s 052D  
                                                       dtoa@w 0529  
                                    _INT1_SetInterruptHandler 2AE6  
                                               _unlockKeyHigh 0550  
                                                       pclath 04FA  
                                                       pclatu 04FB  
                                                       tablat 04F5  
                                                       status 04D8  
                                       __end_of_Timer1_Reload 2AAA  
                                            EEPROM_Write@data 0507  
                                             __initialization 28D2  
                                        _UART1_TransmitEnable 0000  
                                                __end_of_main 1D2A  
                                                __end_of_dtoa 17FC  
                                                __end_of_tmr2 1649  
                                     __end_of_TMR2_Initialize 2952  
                                 ?_INTERRUPT_InterruptManager 0501  
                                                ?_UART1_Write 0501  
                                                      ??_main 054D  
                                                      ??_dtoa 0525  
                                                   ??_LAB_ISR 0501  
                                               __activetblptr 0003  
                                  __end_of_NVM_UnlockKeyClear 2B22  
               __end_of_PWM1_16BIT_Period_SetInterruptHandler 2ADC  
                     ??_PWM1_16BIT_Period_SetInterruptHandler 0506  
                      ?_PWM1_16BIT_Period_SetInterruptHandler 0504  
                       _PWM1_16BIT_Period_SetInterruptHandler 2AD2  
                                                      ?_Blink 0501  
                                            _UART1_Initialize 2350  
            UART1_ParityErrorCallbackRegister@callbackHandler 0504  
           UART1_OverrunErrorCallbackRegister@callbackHandler 0504  
           UART1_FramingErrorCallbackRegister@callbackHandler 0504  
                                                      _ADACCH 03E4  
                                                      _ADACCL 03E3  
                                                      _ADACCU 03E5  
                                                      _ADACQH 03EF  
                                                      _ADACQL 03EE  
                                                      _ADCON0 03F3  
                                                      _ADCON1 03F4  
                                                      _ADCON2 03F5  
                                                      _ADCON3 03F6  
                                                      _ADERRH 03DE  
                                                      _ADERRL 03DD  
                                                      ?_fputc 0506  
                                                      _ACTCON 00AC  
                                                      _ADLTHH 03DA  
                                                      _ADLTHL 03D9  
                                                      ?_fputs 050F  
                                                      _ADRESH 03EB  
                                                      _ADRESL 03EA  
                                                      _ADPREH 03F2  
                                                      _ADPREL 03F1  
                                                      _ADSTAT 03F7  
                                                      _ADUTHH 03DC  
                                            ___awdiv@dividend 0504  
                                                      _ADUTHL 03DB  
                                                      _ANSELA 0400  
                                                      ?_putch 0501  
                                                      _ANSELB 0408  
                                                      _ANSELC 0410  
                                                      _T0CON0 031A  
                                                      _T0CON1 031B  
                                                      _EEPROM 1A4C  
                                                      _T1GATE 0316  
                                                      _T1GCON 0315  
                                                      _RB4I2C 0287  
                                                      _U1CON0 02AB  
                                                      _U1CON1 02AC  
                                                      _U1CON2 02AD  
                                                      _RB6I2C 0286  
                                                      _U1BRGH 02AF  
                                                      _U1FIFO 02B0  
                                                      _U1BRGL 02AE  
                                                      _RC5PPS 0216  
                                                      _ODCONA 0402  
                                                      _ODCONB 040A  
                                                      _ODCONC 0412  
                                                      _RC6PPS 0217  
                                                      i2l1041 2B5E  
                                                      i2l1202 2B5A  
                                                      i2l1123 2B5C  
                                                      i2l1196 2874  
                                                      i2l4260 25DC  
                                                      i2l4190 2846  
                                                      i2l4262 25EA  
                                                      i2l4192 2848  
                                                      i2l4264 2600  
                                                      i2l4194 285C  
                                                      i2l4266 260E  
                                                      i2l4258 25CE  
                                                      _INLVLA 0404  
                                                      i2l3850 22DC  
                                                      _INLVLB 040C  
                                                      _INLVLC 0414  
                                                      i2l3852 22E0  
                                                      i2l3854 22F6  
                                                      i2l3846 22C8  
                                                      i2l3856 230E  
                                                      i2l3848 22D8  
                                                      i2l3858 232C  
                                                      _TABLAT 04F5  
                                     __end_of_UART1_IsTxReady 29A6  
                                                      _OSCFRQ 00B1  
                                                      _TMR0IE 255F  
                                                      _TMR1IF 25B4  
                                            ?_NVM_StatusClear 0501  
                                               ??_SleepWakeUp 0504  
                                               ??_Timer1_Stop 0504  
                                                  _Timer1_Lab 1B54  
                                                      _Timer0 1631  
                                                      _Timer1 1649  
                                                vfprintf@cfmt 0542  
                                                      _Rotate 1D2A  
                        __end_of_TMR2_DefaultOverflowCallback 2B5E  
                                _TMR2_DefaultOverflowCallback 2B5C  
                                                   ??___awdiv 0508  
                                                   ??___awmod 0508  
                                           __end_of_TMR2_Stop 2B3C  
                                                      clear_0 28D8  
                                                      clear_1 28E4  
                                            ___awdiv@quotient 050A  
                                             ___awmod@divisor 0506  
                                                      isa$std 0001  
                                             ___awmod@counter 0508  
                                                      _printf 29CC  
                                                      pad@buf 0518  
                                                      dtoa@fp 0521  
                                           ?_CLOCK_Initialize 0501  
                                             _ADCC_Initialize 24B6  
                                                      fputc@c 0506  
                                _INT2_DefaultInterruptHandler 0000  
                                                      fputs@c 0513  
                                                      fputs@i 0514  
                                                      fputs@s 050F  
                                          ??_CLOCK_Initialize 0504  
                                                   ??_nextLab 0504  
                                                __mediumconst 0000  
                                                 ?_HelloWorld 0501  
                                                      tblptrh 04F7  
                                                      tblptrl 04F6  
                                                      tblptru 04F8  
                       fp__UART1_OverrunErrorCallbackRegister 0000  
                  __end_of_UART1_OverrunErrorCallbackRegister 2A64  
                        ??_UART1_OverrunErrorCallbackRegister 0506  
                         ?_UART1_OverrunErrorCallbackRegister 0504  
                          _UART1_OverrunErrorCallbackRegister 2A48  
                                            __end_of_vfprintf 266C  
                                   ?_ADCC_GetSingleConversion 0504  
                    INT2_SetInterruptHandler@InterruptHandler 0504  
                    INT1_SetInterruptHandler@InterruptHandler 0504  
                    INT0_SetInterruptHandler@InterruptHandler 0504  
       PWM1_16BIT_Period_SetInterruptHandler@InterruptHandler 0504  
PWM1_16BIT_Slice1Output2_SetInterruptHandler@InterruptHandler 0504  
PWM1_16BIT_Slice1Output1_SetInterruptHandler@InterruptHandler 0504  
                                            ?_PIN_MANAGER_IOC 0501  
                                            ??_NVM_Initialize 0504  
                                           _UART1_AutoBaudSet 0000  
                                           _SYSTEM_Initialize 28FE  
                                             fp__Timer1_Start 0000  
                                             fp__Timer1_Write 0000  
                          fp__Timer0_OverflowCallbackRegister 0000  
                     __end_of_Timer0_OverflowCallbackRegister 2B0E  
                           ??_Timer0_OverflowCallbackRegister 0506  
                            ?_Timer0_OverflowCallbackRegister 0504  
                             _Timer0_OverflowCallbackRegister 2B04  
                                                  __accesstop 0560  
                                     __end_of__initialization 28F8  
                                          ?_SYSTEM_Initialize 0501  
                                               ___rparam_used 0001  
                                               __end_of_UART1 1631  
                                               __end_of_Blink 21AE  
                                              __pcstackCOMRAM 0501  
                                         ??_SYSTEM_Initialize 0508  
                                       _UART1_TransmitDisable 0000  
                                         __end_of_SleepWakeUp 256E  
                                               __end_of_fputc 1FA2  
                                               __end_of_fputs 2790  
                             fp__TMR2_DefaultOverflowCallback 0000  
                               ?_TMR2_DefaultOverflowCallback 0501  
                                               __end_of_putch 2A10  
                                            ?_TMR2_Initialize 0501  
                                         __end_of_Timer1_Stop 2B48  
                                                     ??_Blink 0506  
                            __end_of_INT2_SetInterruptHandler 2AE6  
                                   _UART1_FramingErrorHandler 0568  
                             ??_TMR2_OverflowCallbackRegister 0506  
                                           __end_of_Interrupt 2706  
                                                     ??_fputc 050A  
                                   __end_of_SYSTEM_Initialize 2928  
                                                     ??_fputs 0513  
                                                     ??_putch 0505  
                                                     ?_EEPROM 0501  
                                                _EEPROM_Write 256E  
                                                  __pbssBANK5 0560  
                                            ?_UART1_IsTxReady 0501  
                                       _INT0_InterruptHandler 0574  
                                                     IVTBASEH 045E  
                                                     IVTBASEL 045D  
                                                     IVTBASEU 045F  
                                          _UART1_Deinitialize 0000  
                                               ?_Timer1_Start 0501  
                                               ?_Timer1_Write 0504  
                                                 ?_Timer1_Lab 0501  
                                                     ?_Rotate 0501  
                                     __end_of_ADCC_Initialize 2516  
                                                     _ADFLTRH 03E2  
                                                     _ADFLTRL 03E1  
                                     ??_PWM1_16BIT_Initialize 0506  
                                                  _ledDisplay 0552  
                                                     _ADPREVH 03E9  
                                                     _ADPREVL 03E8  
                                                     _ADSTPTH 03E0  
                                                     _ADSTPTL 03DF  
                                                     ?_printf 0544  
                                                     _LAB_ISR 22C8  
                                                     _U1ERRIE 02B3  
                                                     _U1ERRIR 02B2  
                                  ??_INT1_SetInterruptHandler 0506  
                                                     _U1RXCHK 02A2  
                                                     _U1TXCHK 02A4  
                                                     _U1RXPPS 0272  
                                                     _OSCCON1 00AD  
                                                     _OSCCON3 00AF  
                                                     _TBLPTRH 04F7  
                                                     _TBLPTRL 04F6  
                                                     _TBLPTRU 04F8  
                                                     _NVMADRH 0044  
                                                     _NVMADRL 0043  
                                           ?_NVM_UnlockKeySet 0504  
                                                     _NVMADRU 0045  
                                                     _NVMDATH 0047  
                                                     _OSCTUNE 00B0  
                                                     _PWM1CLK 0461  
                                                     _NVMDATL 0046  
                                           _PWM1_16BIT_Enable 2B52  
                                                     _PWM1GIE 0468  
                                                     _PWM1CON 0469  
                                                     _PWM1GIR 0467  
                                                     _PWM1ERS 0460  
                                                     _PWM1LDS 0462  
                                                     _PWM1PRH 0464  
                                                     _PWM1PRL 0463  
                                                     _NVMLOCK 0042  
                                                     _SLRCONA 0403  
                                                     _SLRCONB 040B  
                                                     _SLRCONC 0413  
                                                ??_TMR2_Start 0504  
                                          ??_NVM_UnlockKeySet 0506  
                                          ?_PWM1_16BIT_Enable 0501  
                                         fp__UART1_Initialize 0000  
                                   ?_INT0_SetInterruptHandler 0504  
                                         ??_PWM1_16BIT_Enable 0504  
                                              ??_Timer1_Start 0504  
                                              ??_Timer1_Write 0506  
                                                 _SleepWakeUp 2516  
                                                     __Hparam 0000  
                                                     __Lparam 0000  
                                    __end_of_UART1_Initialize 23CE  
                                                 _Timer0_Stop 0000  
                                                 _Timer1_Stop 2B42  
                           fp__Timer0_DefaultOverflowCallback 0000  
                            ??_Timer0_DefaultOverflowCallback 0501  
                             ?_Timer0_DefaultOverflowCallback 0501  
                                                     ___awdiv 1FA2  
                                                     ___awmod 2066  
                                           _Timer0_Initialize 29A6  
                                                   ?_vfprintf 053C  
                                                __psmallconst 1600  
                                     _Timer1_InterruptHandler 056C  
                                          __end_of_TMR2_Start 2B42  
                                                     __pcinit 28D2  
                                          ?_Timer0_Initialize 0501  
                                                     __ramtop 1600  
                                                     __ptext0 1C40  
                                                     __ptext1 2A10  
                                                     __ptext2 266C  
                                                     __ptext3 1928  
                                                     __ptext4 1B54  
                                                     __ptext5 2516  
                                                     __ptext6 28FE  
                                                     __ptext7 2350  
                                                     __ptext8 2A2C  
                                                     __ptext9 2A48  
        __end_of_PWM1_16BIT_Slice1Output1_SetInterruptHandler 2AD2  
              ??_PWM1_16BIT_Slice1Output1_SetInterruptHandler 0506  
               ?_PWM1_16BIT_Slice1Output1_SetInterruptHandler 0504  
                _PWM1_16BIT_Slice1Output1_SetInterruptHandler 2AC8  
                                                   _T1CONbits 0314  
                                                   _T2CONbits 031E  
                                   __end_of_PWM1_16BIT_Enable 2B56  
                              ??_TMR2_DefaultOverflowCallback 0501  
                                            ___awmod@dividend 0504  
                                                     _nextLab 2A10  
                                    ??_PIN_MANAGER_Initialize 0504  
                                                   _T2HLTbits 031F  
                                         ??_Timer0_Initialize 0506  
                                                  fp__LAB_ISR 0000  
               TMR2_OverflowCallbackRegister@InterruptHandler 0504  
                                           _Timer1_Initialize 2706  
                                        end_of_initialization 28F8  
                                  __end_of_PWM1_16BIT_Disable 2B5A  
            _PWM1_16BIT_Slice1Output2_DefaultInterruptHandler 0000  
                                                   _U1UIRbits 02B1  
                                                   _T2RSTbits 0321  
                                    _INT2_SetInterruptHandler 2ADC  
                                                   _PIR10bits 04BD  
                                          ?_Timer1_Initialize 0501  
                                               ??_EEPROM_Read 0507  
                                                     fputc@fp 0508  
                                          _NVM_UnlockKeyClear 2B18  
                                                     fputs@fp 0511  
                                         ??_Timer1_Initialize 0506  
                                   __end_of_Timer0_Initialize 29CC  
                                           __end_of_vfpfcnvrt 1928  
                                         ?_NVM_UnlockKeyClear 0501  
                                                     postdec2 04DD  
                                                   _PWM1S1CFG 046A  
                                                   _PWM1S1P1H 046C  
                                               _checkButtonS1 266C  
                                                   _PWM1S1P2H 046E  
                                                   _PWM1S1P1L 046B  
                                                   _PWM1S1P2L 046D  
                                                     postinc0 04EE  
                                                     postinc1 04E6  
                                                     postinc2 04DE  
                                            vfpfcnvrt@convarg 0536  
                                                   _PWM1PIPOS 0466  
                                            ?_ADCC_Initialize 0501  
                                                  ??_vfprintf 0542  
                            __end_of_ADCC_GetSingleConversion 28D2  
                                           UART1_Write@txData 0504  
                            _UART1_DefaultParityErrorCallback 0000  
                                       _INT1_InterruptHandler 0572  
                                                   _PORTCbits 04D0  
                                                   _TMR2_Stop 2B36  
                                                ??_HelloWorld 0504  
              Timer0_OverflowCallbackRegister@CallbackHandler 0504  
              Timer1_OverflowCallbackRegister@CallbackHandler 0504  
                                        ??_NVM_UnlockKeyClear 0504  
                                   __end_of_Timer1_Initialize 274C  
                                              __end_of_EEPROM 1B54  
                                   NVM_UnlockKeySet@unlockKey 0504  
                                              ?_checkButtonS1 0501  
                                         __end_of_EEPROM_Read 28A4  
                                          __end_of_HelloWorld 27D2  
                                              __end_of_Timer0 163D  
                                              __end_of_Timer1 1655  
                                __end_of_INTERRUPT_Initialize 2846  
                                              __end_of_Rotate 1E06  
                                _INT0_DefaultInterruptHandler 0000  
                                                 vfpfcnvrt@ap 0532  
                                                 vfpfcnvrt@cp 053A  
                                                 vfpfcnvrt@fp 052E  
                                                  ?_TMR2_Stop 0501  
                                              __end_of_printf 29F2  
                                          _rotateReg@VSR$F279 0557  
                                        __end_of_Timer1_Start 2B4E  
                                         start_initialization 28D2  
                                        __end_of_Timer1_Write 297C  
                                                 __end_of_ADC 1ED8  
                                                 __end_of_PWM 223C  
                                                 __end_of_VSR 1A4C  
                                                 __end_of_abs 2812  
                                                 __end_of_pad 2448  
                                                 putch@txData 0505  
                                                    ??_EEPROM 054A  
                                                  ivt0x8_base 0008  
                                                   _Interrupt 26BA  
                                               fp__TMR2_Start 0000  
                                               _Timer0_Reload 0000  
                                               _Timer1_Reload 2A9C  
                                                ??_Timer1_Lab 0506  
                                                 vfprintf@fmt 053E  
                                                    ??_Rotate 0504  
                                                    ??_printf 0548  
                               __end_of_PWM1_16BIT_Initialize 24B6  
                                                    ?_LAB_ISR 0501  
                                              fp__Timer1_Stop 0000  
                                    _ADCC_GetSingleConversion 28A4  
                                                 __pbssCOMRAM 054F  
                            __end_of_INT0_SetInterruptHandler 2AFA  
                                                   _adcResult 0559  
                                          fp__TMR2_Initialize 0000  
                                          __end_of_Timer1_Lab 1C40  
                                        Timer1_Write@timerVal 0504  
                                                  ?_Interrupt 0501  
                                       _adcResult@EEPROM$F644 0553  
                                       _INT2_InterruptHandler 0570  
                                                 _EEPROM_Read 2876  
                                       _TMR2_OverflowCallback 059A  
                                              ?_Timer1_Reload 0501  
                                                   __pnvBANK5 0598  
                                                ?_SleepWakeUp 0501  
                                             ??_checkButtonS1 0504  
                                      _PIN_MANAGER_Initialize 223C  
                                                ?_Timer1_Stop 0501  
                                                   _dtoa$3546 0525  
                                           ?_UART1_Initialize 0501  
                                                   _labNumber 055F  
                             ADCC_GetSingleConversion@channel 0508  
                                  __end_of_Timer0_OverflowISR 2876  
                                          fp__UART1_IsTxReady 0000  
                                                    ?___awdiv 0504  
                                                    ?___awmod 0504  
                                                 _flagCounter 055B  
                                          ??_UART1_Initialize 0506  
                                            _uart1RxLastError 056A  
                                               ??_UART1_Write 0504  
                                ??_INTERRUPT_InterruptManager 0502  
                                                 ??_TMR2_Stop 0504  
                                           ??_NVM_StatusClear 0504  
                                                 __smallconst 1600  
                                  ??_INT2_SetInterruptHandler 0506  
                                                    ?_nextLab 0501  
                      __end_of_Timer0_DefaultOverflowCallback 2B5C  
                              _Timer0_DefaultOverflowCallback 2B5A  
                                                    _T2CLKCON 0320  
                                                 _U1ERRIRbits 02B2  
                                        _INTERRUPT_Initialize 2812  
                   _PWM1_16BIT_Period_DefaultInterruptHandler 0000  
                                            _CLOCK_Initialize 2A80  
                                                    _LATAbits 04BE  
                                                    _LATCbits 04C0  
                                   ?_INT1_SetInterruptHandler 0504  
                                                    _PIE0bits 04A8  
                                                    _PIE3bits 04AB  
                                                    _PIE4bits 04AC  
                                                    i2u212_40 285C  
                                                    i2u212_41 2858  
                                                    i2u213_48 2862  
                                                    i2u230_40 25EA  
                                                    i2u213_49 2874  
                                                    i2u230_41 25E6  
                                                    i2u231_40 2600  
                                                    i2u231_41 25FC  
                                                    i2u232_40 260E  
                                                    i2u232_41 260A  
                                                    i2u229_40 25DC  
                                                    i2u229_41 25D8  
                                                    i2u182_40 22D8  
                                                    i2u182_41 22D4  
                                                    _PIR0bits 04B3  
                                                    _PIR1bits 04B4  
                                                    _PIR2bits 04B5  
                                                    _PIR3bits 04B6  
                                                    _PIR4bits 04B7  
                                                    _PIR6bits 04B9  
                                                    _PWM1CPRE 0465  
                                          _PWM1_16BIT_Disable 2B56  
        __end_of_PWM1_16BIT_SetSlice1Output1DutyCycleRegister 2B04  
              ??_PWM1_16BIT_SetSlice1Output1DutyCycleRegister 0506  
               ?_PWM1_16BIT_SetSlice1Output1DutyCycleRegister 0504  
                _PWM1_16BIT_SetSlice1Output1DutyCycleRegister 2AFA  
                           fp__Timer1_DefaultOverflowCallback 0000  
                            ??_Timer1_DefaultOverflowCallback 0501  
                             ?_Timer1_DefaultOverflowCallback 0501  
                                           ??_PIN_MANAGER_IOC 0501  
                      __end_of_PWM1_16BIT_LoadBufferRegisters 2B52  
                              _PWM1_16BIT_LoadBufferRegisters 2B4E  
                                                   _vfpfcnvrt 17FC  
                                                   _rotateReg 055A  
                                                  _ADCON0bits 03F3  
                                                  _ADCON1bits 03F4  
                                                  _ADCON2bits 03F5  
                                         ?_PWM1_16BIT_Disable 0501  
                                                  _ADCON3bits 03F6  
        __end_of_PWM1_16BIT_Slice1Output2_SetInterruptHandler 2AC8  
              ??_PWM1_16BIT_Slice1Output2_SetInterruptHandler 0506  
               ?_PWM1_16BIT_Slice1Output2_SetInterruptHandler 0504  
                _PWM1_16BIT_Slice1Output2_SetInterruptHandler 2ABE  
                                         __end_of_UART1_Write 2B2A  
                                                 _INTCON0bits 04D6  
                   _PWM1_16BIT_Slice1Output1_InterruptHandler 05A2  
                                       ?_INTERRUPT_Initialize 0501  
                                    _INT0_SetInterruptHandler 2AF0  
                                             ??_Timer1_Reload 0506  
                                                 ??_Interrupt 0506  
                                           ??_TMR2_Initialize 0506  
                                        ??_PWM1_16BIT_Disable 0504  
                                                fp__TMR2_Stop 0000  
                                                  _ADSTATbits 03F7  
                                                    __Hrparam 0000  
                                                _Timer1_Tasks 0000  
                                                _Timer0_Start 0000  
                                                _Timer1_Start 2B48  
                                                _Timer1_Write 2952  
                                                  vfprintf@ap 0540  
                                                    __Lrparam 0000  
                                                  vfprintf@fp 053C  
                                                  ?_vfpfcnvrt 052E  
                                           ??_UART1_IsTxReady 0504  
                           _UART1_DefaultFramingErrorCallback 0000  
                                                  _T0CON0bits 031A  
                                                    __pivt0x8 0008  
                                        fp__Timer0_Initialize 0000  
                                                    _labState 055D  
                                                    __ptext10 2A64  
                                                    __ptext11 2706  
                                                    __ptext20 223C  
                                                    __ptext12 2AAA  
                                                    __ptext21 2B2A  
                                                    __ptext13 29A6  
                                                  _T1GCONbits 0315  
                                                    __ptext30 21AE  
                                                    __ptext22 2B30  
                                                    __ptext14 2928  
                                                    __ptext31 2B36  
                                                    __ptext23 2812  
                                                    __ptext15 2AB4  
                                                    __ptext40 1A4C  
                                                    __ptext32 2B3C  
                                                    __ptext24 2ADC  
                                                    __ptext16 2448  
                                                    __ptext41 2B0E  
                                                    __ptext33 2AFA  
                                                    __ptext25 2AE6  
                                                    __ptext17 2ABE  
                                                    __ptext50 1E06  
                                                    __ptext42 2B18  
                                                    __ptext34 2B4E  
                                                    __ptext26 2AF0  
                                                    __ptext18 2AC8  
                                                    __ptext51 29CC  
                                                    __ptext43 256E  
                                                    __ptext35 2B52  
                                                    __ptext27 2A80  
                                                    __ptext19 2AD2  
                                                    __ptext60 297C  
                                                    __ptext52 261C  
                                                    __ptext44 2876  
                                                    __ptext36 2B56  
                                                    __ptext28 24B6  
                                                    __ptext61 27D2  
                                                    __ptext53 17FC  
                                                    __ptext45 2116  
                                                    __ptext37 26BA  
                                                    __ptext29 1D2A  
                                                    __ptext70 2B5E  
                                                    __ptext62 2066  
                                                    __ptext54 1668  
                                                    __ptext46 2B42  
                                                    __ptext38 2B04  
                                                    __ptext71 2B60  
                                                    __ptext63 1FA2  
                                                    __ptext55 23CE  
                                                    __ptext47 2B48  
                                                    __ptext39 2790  
                                                    __ptext72 0000  
                                                    __ptext64 28A4  
                                                    __ptext56 274C  
                                                    __ptext48 2A9C  
                                                    __ptext65 25C6  
                                                    __ptext57 1ED8  
                                                    __ptext49 2952  
                                                    __ptext66 2846  
                                                    __ptext58 29F2  
                                                    __ptext67 2B5A  
                                                    __ptext59 2B22  
                                                    __ptext68 2B5C  
                                                    __ptext69 22C8  
                                                    _btnState 055C  
                                                  _U1CON0bits 02AB  
                                                  _U1CON1bits 02AC  
                                               ?_EEPROM_Write 0504  
                                                  _U1FIFObits 02B0  
                       __end_of_TMR2_OverflowCallbackRegister 2ABE  
                               _TMR2_OverflowCallbackRegister 2AB4  
                                          _adcResult@PWM$F336 0576  
                                            _NVM_UnlockKeySet 2B0E  
                                        fp__Timer1_Initialize 0000  
                                   _UART1_OverrunErrorHandler 0566  
                                              _NVM_Initialize 2B2A  
                                                    isa$xinst 0000  
                                  ??_ADCC_GetSingleConversion 0506  
                          _PWM1_16BIT_Period_InterruptHandler 059E  
                                                    _vfprintf 261C  
                          __end_of_INTERRUPT_InterruptManager 261C  
                                  _INTERRUPT_InterruptManager 25C6  
                                                   printf@fmt 0544  
                                                 _UART1_Write 2B22  
                                _INT1_DefaultInterruptHandler 0000  
                                                 _PWM1GIEbits 0468  
                                                 _NVMCON0bits 0040  
                                                 _PWM1CONbits 0469  
                                                 _NVMCON1bits 0041  
                                                 _PWM1GIRbits 0467  
                                      ??_INTERRUPT_Initialize 0506  
                                         _TMR2_PeriodCountSet 0000  
                                              ??_EEPROM_Write 0508  
                                     _Timer0_OverflowCallback 0598  
                                                    intlevel2 0000  
                                                ?_EEPROM_Read 0504  
                                     ?_PIN_MANAGER_Initialize 0501  
                                                 _WDTCON0bits 0078  
                                      __end_of_NVM_Initialize 2B30  
                                          EEPROM_Read@address 0504  
                          fp__Timer1_OverflowCallbackRegister 0000  
                     __end_of_Timer1_OverflowCallbackRegister 2AB4  
                           ??_Timer1_OverflowCallbackRegister 0506  
                            ?_Timer1_OverflowCallbackRegister 0504  
                             _Timer1_OverflowCallbackRegister 2AAA  
                                             _NVM_StatusClear 2B30  
                                       _rotateReg@Timer1$F381 0556  
                                                    printf@ap 0548  
                                                  _UART1_Read 0000  
                   _PWM1_16BIT_Slice1Output2_InterruptHandler 05A0  
                                                 ??_vfpfcnvrt 0534  
                                    __end_of_CLOCK_Initialize 2A9C  
                                       _PWM1_16BIT_Initialize 2448  
                            __end_of_INT1_SetInterruptHandler 2AF0  
                                          _Timer0_OverflowISR 2846  
                           _UART1_DefaultOverrunErrorCallback 0000  
                                       _rotateReg@Timers$F418 0555  
                                                  _TMR2_Tasks 0000  
                                                  _TMR2_Start 2B3C  
                         EEPROM_Write@globalInterruptBitValue 050B  
                              __end_of_PIN_MANAGER_Initialize 22C8  
                                           ??_ADCC_Initialize 0504  
                                         ?_Timer0_OverflowISR 0501  
                        fp__UART1_ParityErrorCallbackRegister 0000  
                   __end_of_UART1_ParityErrorCallbackRegister 2A48  
                         ??_UART1_ParityErrorCallbackRegister 0506  
                          ?_UART1_ParityErrorCallbackRegister 0504  
                           _UART1_ParityErrorCallbackRegister 2A2C  
                                             _PIN_MANAGER_IOC 2B60  
                                         _UART1_AutoBaudQuery 0000  
                                             ?_NVM_Initialize 0501  
                                         EEPROM_Write@address 0504  
                                       __end_of_checkButtonS1 26BA  
